///////////////////////////////////////////////////////////////////////////////
//
// IAR C/C++ Compiler V10.30.1.6000 for 8051              08/Jan/2020  12:48:54
// Copyright 2004-2018 IAR Systems AB.
// PC-locked license - IAR Embedded Workbench for 8051
//
//    Core               =  plain
//    Code model         =  banked
//    Data model         =  large
//    Calling convention =  xdata reentrant
//    Constant location  =  data_rom
//    Dptr setup         =  1,16
//                          
//    Source file        =  
//        D:\VB_Shared\Zigbee Resources\CC2530 Development\Projects\zstack -
//        Working TS Backup\ZMain\TI2530DB\Theme_switch\keusMain.c
//    Command line       =  
//        -f C:\Users\Souvik\AppData\Local\Temp\EWEFCD.tmp
//        ("D:\VB_Shared\Zigbee Resources\CC2530 Development\Projects\zstack -
//        Working TS Backup\ZMain\TI2530DB\Theme_switch\keusMain.c" -D SECURE=1
//        -D TC_LINKKEY_JOIN -D NV_INIT -D NV_RESTORE -D HAL_KEY=FALSE -D
//        HAL_LCD=FALSE -D HAL_LED=FALSE -D MULTICAST_ENABLED=FALSE -D ZCL_READ
//        -D ZCL_WRITE -D ZCL_BASIC -D ZCL_IDENTIFY -D
//        KEUS_GPIO_INTERRUPT_HANDLER_DISABLE -D HAL_UART=TRUE -D
//        HAL_UART_ISR=1 -D HAL_UART_DMA=2 -D HAL_UART_DMA_RX_MAX=64 -D
//        HAL_UART_DMA_TX_MAX=64 -D INT_HEAP_LEN=3172 -lC "D:\VB_Shared\Zigbee
//        Resources\CC2530 Development\Projects\zstack - Working TS
//        Backup\HomeAutomation\Theme_Switch\CC2530DB\EndDeviceEB\List" -lA
//        "D:\VB_Shared\Zigbee Resources\CC2530 Development\Projects\zstack -
//        Working TS
//        Backup\HomeAutomation\Theme_Switch\CC2530DB\EndDeviceEB\List"
//        --diag_suppress Pe001,Pa010 -o "D:\VB_Shared\Zigbee Resources\CC2530
//        Development\Projects\zstack - Working TS
//        Backup\HomeAutomation\Theme_Switch\CC2530DB\EndDeviceEB\Obj" -e
//        --debug --core=plain --dptr=16,1 --data_model=large
//        --code_model=banked --calling_convention=xdata_reentrant
//        --place_constants=data_rom --nr_virtual_regs 16 -f
//        "D:\VB_Shared\Zigbee Resources\CC2530 Development\Projects\zstack -
//        Working TS
//        Backup\HomeAutomation\Theme_Switch\CC2530DB\..\..\..\Tools\CC2530DB\f8wEndev.cfg"
//        (-DCPU32MHZ -DROOT=__near_func -DMAC_CFG_TX_DATA_MAX=3
//        -DMAC_CFG_TX_MAX=6 -DMAC_CFG_RX_MAX=3) -f "D:\VB_Shared\Zigbee
//        Resources\CC2530 Development\Projects\zstack - Working TS
//        Backup\HomeAutomation\Theme_Switch\CC2530DB\..\..\..\Tools\CC2530DB\f8wConfig.cfg"
//        (-DZIGBEEPRO -DSECURE=1 -DZG_SECURE_DYNAMIC=0 -DREFLECTOR
//        -DDEFAULT_CHANLIST=0x00000800 -DZDAPP_CONFIG_PAN_ID=0xFFFF
//        -DNWK_START_DELAY=100 -DEXTENDED_JOINING_RANDOM_MASK=0x007F
//        -DBEACON_REQUEST_DELAY=100 -DBEACON_REQ_DELAY_MASK=0x00FF
//        -DLINK_STATUS_JITTER_MASK=0x007F -DROUTE_EXPIRY_TIME=30
//        -DAPSC_ACK_WAIT_DURATION_POLLED=3000 -DNWK_INDIRECT_MSG_TIMEOUT=7
//        -DMAX_RREQ_ENTRIES=8 -DAPSC_MAX_FRAME_RETRIES=3
//        -DNWK_MAX_DATA_RETRIES=2 -DMAX_POLL_FAILURE_RETRIES=2 -DMAX_BCAST=9
//        -DAPS_MAX_GROUPS=16 -DMAX_RTG_ENTRIES=40 -DNWK_MAX_BINDING_ENTRIES=4
//        -DMAX_BINDING_CLUSTER_IDS=4 -DDEFAULT_KEY={0}
//        -DMAC_MAX_FRAME_SIZE=116 -DZDNWKMGR_MIN_TRANSMISSIONS=20
//        "-DCONST=const __code" -DGENERIC=__generic -DRFD_RCVC_ALWAYS_ON=FALSE
//        -DPOLL_RATE=1000 -DQUEUED_POLL_RATE=100 -DRESPONSE_POLL_RATE=100
//        -DREJOIN_POLL_RATE=440 -DREJOIN_BACKOFF=900000 -DREJOIN_SCAN=900000
//        -DENABLE_LED4_DISABLE_S1) -f "D:\VB_Shared\Zigbee Resources\CC2530
//        Development\Projects\zstack - Working TS
//        Backup\HomeAutomation\Theme_Switch\CC2530DB\..\..\..\Tools\CC2530DB\f8wZCL.cfg"
//        -I "D:\VB_Shared\Zigbee Resources\CC2530 Development\Projects\zstack
//        - Working TS Backup\HomeAutomation\Theme_Switch\CC2530DB\" -I
//        "D:\VB_Shared\Zigbee Resources\CC2530 Development\Projects\zstack -
//        Working TS Backup\HomeAutomation\Theme_Switch\CC2530DB\..\Source\" -I
//        "D:\VB_Shared\Zigbee Resources\CC2530 Development\Projects\zstack -
//        Working TS Backup\HomeAutomation\Theme_Switch\CC2530DB\..\..\Source\"
//        -I "D:\VB_Shared\Zigbee Resources\CC2530 Development\Projects\zstack
//        - Working TS
//        Backup\HomeAutomation\Theme_Switch\CC2530DB\..\..\..\ZMain\TI2530DB\"
//        -I "D:\VB_Shared\Zigbee Resources\CC2530 Development\Projects\zstack
//        - Working TS
//        Backup\HomeAutomation\Theme_Switch\CC2530DB\..\..\..\..\..\Components\hal\include\"
//        -I "D:\VB_Shared\Zigbee Resources\CC2530 Development\Projects\zstack
//        - Working TS
//        Backup\HomeAutomation\Theme_Switch\CC2530DB\..\..\..\..\..\Components\hal\target\CC2530EB\"
//        -I "D:\VB_Shared\Zigbee Resources\CC2530 Development\Projects\zstack
//        - Working TS
//        Backup\HomeAutomation\Theme_Switch\CC2530DB\..\..\..\..\..\Components\mac\include\"
//        -I "D:\VB_Shared\Zigbee Resources\CC2530 Development\Projects\zstack
//        - Working TS
//        Backup\HomeAutomation\Theme_Switch\CC2530DB\..\..\..\..\..\Components\mac\high_level\"
//        -I "D:\VB_Shared\Zigbee Resources\CC2530 Development\Projects\zstack
//        - Working TS
//        Backup\HomeAutomation\Theme_Switch\CC2530DB\..\..\..\..\..\Components\mac\low_level\srf04\"
//        -I "D:\VB_Shared\Zigbee Resources\CC2530 Development\Projects\zstack
//        - Working TS
//        Backup\HomeAutomation\Theme_Switch\CC2530DB\..\..\..\..\..\Components\mac\low_level\srf04\single_chip\"
//        -I "D:\VB_Shared\Zigbee Resources\CC2530 Development\Projects\zstack
//        - Working TS
//        Backup\HomeAutomation\Theme_Switch\CC2530DB\..\..\..\..\..\Components\mt\"
//        -I "D:\VB_Shared\Zigbee Resources\CC2530 Development\Projects\zstack
//        - Working TS
//        Backup\HomeAutomation\Theme_Switch\CC2530DB\..\..\..\..\..\Components\osal\include\"
//        -I "D:\VB_Shared\Zigbee Resources\CC2530 Development\Projects\zstack
//        - Working TS
//        Backup\HomeAutomation\Theme_Switch\CC2530DB\..\..\..\..\..\Components\services\saddr\"
//        -I "D:\VB_Shared\Zigbee Resources\CC2530 Development\Projects\zstack
//        - Working TS
//        Backup\HomeAutomation\Theme_Switch\CC2530DB\..\..\..\..\..\Components\services\sdata\"
//        -I "D:\VB_Shared\Zigbee Resources\CC2530 Development\Projects\zstack
//        - Working TS
//        Backup\HomeAutomation\Theme_Switch\CC2530DB\..\..\..\..\..\Components\stack\af\"
//        -I "D:\VB_Shared\Zigbee Resources\CC2530 Development\Projects\zstack
//        - Working TS
//        Backup\HomeAutomation\Theme_Switch\CC2530DB\..\..\..\..\..\Components\stack\bdb\"
//        -I "D:\VB_Shared\Zigbee Resources\CC2530 Development\Projects\zstack
//        - Working TS
//        Backup\HomeAutomation\Theme_Switch\CC2530DB\..\..\..\..\..\Components\stack\gp\"
//        -I "D:\VB_Shared\Zigbee Resources\CC2530 Development\Projects\zstack
//        - Working TS
//        Backup\HomeAutomation\Theme_Switch\CC2530DB\..\..\..\..\..\Components\stack\nwk\"
//        -I "D:\VB_Shared\Zigbee Resources\CC2530 Development\Projects\zstack
//        - Working TS
//        Backup\HomeAutomation\Theme_Switch\CC2530DB\..\..\..\..\..\Components\stack\sapi\"
//        -I "D:\VB_Shared\Zigbee Resources\CC2530 Development\Projects\zstack
//        - Working TS
//        Backup\HomeAutomation\Theme_Switch\CC2530DB\..\..\..\..\..\Components\stack\sec\"
//        -I "D:\VB_Shared\Zigbee Resources\CC2530 Development\Projects\zstack
//        - Working TS
//        Backup\HomeAutomation\Theme_Switch\CC2530DB\..\..\..\..\..\Components\stack\sys\"
//        -I "D:\VB_Shared\Zigbee Resources\CC2530 Development\Projects\zstack
//        - Working TS
//        Backup\HomeAutomation\Theme_Switch\CC2530DB\..\..\..\..\..\Components\stack\zcl\"
//        -I "D:\VB_Shared\Zigbee Resources\CC2530 Development\Projects\zstack
//        - Working TS
//        Backup\HomeAutomation\Theme_Switch\CC2530DB\..\..\..\..\..\Components\stack\zdo\"
//        -I "D:\VB_Shared\Zigbee Resources\CC2530 Development\Projects\zstack
//        - Working TS
//        Backup\HomeAutomation\Theme_Switch\CC2530DB\..\..\..\..\..\Components\zmac\"
//        -I "D:\VB_Shared\Zigbee Resources\CC2530 Development\Projects\zstack
//        - Working TS
//        Backup\HomeAutomation\Theme_Switch\CC2530DB\..\..\..\..\..\Components\zmac\f8w\"
//        -I "D:\VB_Shared\Zigbee Resources\CC2530 Development\Projects\zstack
//        - Working TS
//        Backup\HomeAutomation\Theme_Switch\CC2530DB\..\..\..\..\..\Components\keus\"
//        -Ohz --require_prototypes)
//    Locale             =  English_USA.1252
//    List file          =  
//        D:\VB_Shared\Zigbee Resources\CC2530 Development\Projects\zstack -
//        Working TS
//        Backup\HomeAutomation\Theme_Switch\CC2530DB\EndDeviceEB\List\keusMain.s51
//
///////////////////////////////////////////////////////////////////////////////

        NAME keusMain

        RTMODEL "__SystemLibrary", "CLib"
        RTMODEL "__calling_convention", "xdata_reentrant"
        RTMODEL "__code_model", "banked"
        RTMODEL "__core", "plain"
        RTMODEL "__data_model", "large"
        RTMODEL "__dptr_size", "16"
        RTMODEL "__extended_stack", "disabled"
        RTMODEL "__location_for_constants", "data"
        RTMODEL "__number_of_dptrs", "1"
        RTMODEL "__register_banks", "*"
        RTMODEL "__rt_version", "1"

        RSEG DOVERLAY:DATA:NOROOT(0)
        RSEG IOVERLAY:IDATA:NOROOT(0)
        RSEG ISTACK:IDATA:NOROOT(0)
        RSEG PSTACK:XDATA:NOROOT(0)
        RSEG XSTACK:XDATA:NOROOT(0)

        EXTERN ?V0
        EXTERN ?V2
        EXTERN ?V3
        EXTERN ?V1
        EXTERN ?BANKED_ENTER_XDATA
        EXTERN ?BANKED_LEAVE_XDATA
        EXTERN ?BDISPATCH
        EXTERN ?L_MOV_X
        EXTERN ?L_XOR_TO_X
        EXTERN __INIT_XDATA_Z

        PUBLIC `??KEUS_init::?relay`
        FUNCTION `??KEUS_init::?relay`,0203H
        PUBLIC `??KEUS_loop::?relay`
        FUNCTION `??KEUS_loop::?relay`,0203H
        PUBLIC KEUS_init
        FUNCTION KEUS_init,0a1203H
        ARGFRAME XSTACK, 0, STACK
        LOCFRAME XSTACK, 12, STACK
        PUBLIC KEUS_loop
        FUNCTION KEUS_loop,0a1203H
        ARGFRAME XSTACK, 0, STACK
        LOCFRAME XSTACK, 12, STACK
        PUBLIC KEUS_taskID
        PUBWEAK __Constant_1
        PUBWEAK __Constant_10
        PUBWEAK __Constant_100
        PUBWEAK __Constant_2
        PUBWEAK __Constant_20
        PUBWEAK __Constant_4
        PUBWEAK __Constant_40
        PUBWEAK __Constant_8
        PUBWEAK __Constant_80
        PUBLIC keusAppEvents
        
          CFI Names cfiNames0
          CFI StackFrame CFA_SP SP IDATA
          CFI StackFrame CFA_PSP16 PSP16 XDATA
          CFI StackFrame CFA_XSP16 XSP16 XDATA
          CFI StaticOverlayFrame CFA_IOVERLAY IOVERLAY
          CFI StaticOverlayFrame CFA_DOVERLAY DOVERLAY
          CFI Resource `PSW.CY`:1, `B.BR0`:1, `B.BR1`:1, `B.BR2`:1, `B.BR3`:1
          CFI Resource `B.BR4`:1, `B.BR5`:1, `B.BR6`:1, `B.BR7`:1, `VB.BR8`:1
          CFI Resource `VB.BR9`:1, `VB.BR10`:1, `VB.BR11`:1, `VB.BR12`:1
          CFI Resource `VB.BR13`:1, `VB.BR14`:1, `VB.BR15`:1, VB:8, B:8, A:8
          CFI Resource PSW:8, DPL0:8, DPH0:8, R0:8, R1:8, R2:8, R3:8, R4:8, R5:8
          CFI Resource R6:8, R7:8, V0:8, V1:8, V2:8, V3:8, V4:8, V5:8, V6:8, V7:8
          CFI Resource V8:8, V9:8, V10:8, V11:8, V12:8, V13:8, V14:8, V15:8, SP:8
          CFI Resource PSPH:8, PSPL:8, PSP16:16, XSPH:8, XSPL:8, XSP16:16
          CFI VirtualResource ?RET:24
          CFI Resource ?BRET_EXT:8
          CFI VirtualResource ?RET_HIGH:8, ?RET_LOW:8
          CFI ResourceParts PSP16 PSPH, PSPL
          CFI ResourceParts XSP16 XSPH, XSPL
          CFI ResourceParts ?RET ?BRET_EXT, ?RET_HIGH, ?RET_LOW
          CFI EndNames cfiNames0
        
          CFI Common cfiCommon0 Using cfiNames0
          CFI CodeAlign 1
          CFI DataAlign -1
          CFI ReturnAddress ?RET CODE
          CFI CFA_DOVERLAY Used
          CFI CFA_IOVERLAY Used
          CFI CFA_SP SP+-3
          CFI CFA_PSP16 PSP16+0
          CFI CFA_XSP16 XSP16+0
          CFI `PSW.CY` SameValue
          CFI `B.BR0` SameValue
          CFI `B.BR1` SameValue
          CFI `B.BR2` SameValue
          CFI `B.BR3` SameValue
          CFI `B.BR4` SameValue
          CFI `B.BR5` SameValue
          CFI `B.BR6` SameValue
          CFI `B.BR7` SameValue
          CFI `VB.BR8` SameValue
          CFI `VB.BR9` SameValue
          CFI `VB.BR10` SameValue
          CFI `VB.BR11` SameValue
          CFI `VB.BR12` SameValue
          CFI `VB.BR13` SameValue
          CFI `VB.BR14` SameValue
          CFI `VB.BR15` SameValue
          CFI VB SameValue
          CFI B Undefined
          CFI A Undefined
          CFI PSW SameValue
          CFI DPL0 SameValue
          CFI DPH0 SameValue
          CFI R0 Undefined
          CFI R1 Undefined
          CFI R2 Undefined
          CFI R3 Undefined
          CFI R4 Undefined
          CFI R5 Undefined
          CFI R6 SameValue
          CFI R7 SameValue
          CFI V0 SameValue
          CFI V1 SameValue
          CFI V2 SameValue
          CFI V3 SameValue
          CFI V4 SameValue
          CFI V5 SameValue
          CFI V6 SameValue
          CFI V7 SameValue
          CFI V8 SameValue
          CFI V9 SameValue
          CFI V10 SameValue
          CFI V11 SameValue
          CFI V12 SameValue
          CFI V13 SameValue
          CFI V14 SameValue
          CFI V15 SameValue
          CFI PSPH Undefined
          CFI PSPL Undefined
          CFI XSPH Undefined
          CFI XSPL Undefined
          CFI ?RET Concat
          CFI ?BRET_EXT Frame(CFA_SP, 3)
          CFI ?RET_HIGH Frame(CFA_SP, 2)
          CFI ?RET_LOW Frame(CFA_SP, 1)
          CFI EndCommon cfiCommon0
        
HalUARTPoll         SYMBOL "HalUARTPoll"
`??HalUARTPoll::?relay` SYMBOL "?relay", HalUARTPoll
HalUARTWrite        SYMBOL "HalUARTWrite"
`??HalUARTWrite::?relay` SYMBOL "?relay", HalUARTWrite
KeusTimerUtilInit   SYMBOL "KeusTimerUtilInit"
`??KeusTimerUtilInit::?relay` SYMBOL "?relay", KeusTimerUtilInit
KeusTimerUtilStartTimer SYMBOL "KeusTimerUtilStartTimer"
`??KeusTimerUtilStartTimer::?relay` SYMBOL "?relay", KeusTimerUtilStartTimer
buttonPressAction   SYMBOL "buttonPressAction"
`??buttonPressAction::?relay` SYMBOL "?relay", buttonPressAction
exitDebugMode       SYMBOL "exitDebugMode"
`??exitDebugMode::?relay` SYMBOL "?relay", exitDebugMode
initUart            SYMBOL "initUart"
`??initUart::?relay` SYMBOL "?relay", initUart
keusButtonInit      SYMBOL "keusButtonInit"
`??keusButtonInit::?relay` SYMBOL "?relay", keusButtonInit
keusLEDInit         SYMBOL "keusLEDInit"
`??keusLEDInit::?relay` SYMBOL "?relay", keusLEDInit
osal_strlen         SYMBOL "osal_strlen"
`??osal_strlen::?relay` SYMBOL "?relay", osal_strlen
parseUart           SYMBOL "parseUart"
`??parseUart::?relay` SYMBOL "?relay", parseUart
KEUS_init           SYMBOL "KEUS_init"
`??KEUS_init::?relay` SYMBOL "?relay", KEUS_init
KEUS_loop           SYMBOL "KEUS_loop"
`??KEUS_loop::?relay` SYMBOL "?relay", KEUS_loop

        EXTERN `??HalUARTPoll::?relay`
        FUNCTION `??HalUARTPoll::?relay`,00H
        EXTERN `??HalUARTWrite::?relay`
        FUNCTION `??HalUARTWrite::?relay`,00H
        EXTERN `??KeusTimerUtilInit::?relay`
        FUNCTION `??KeusTimerUtilInit::?relay`,00H
        EXTERN `??KeusTimerUtilStartTimer::?relay`
        FUNCTION `??KeusTimerUtilStartTimer::?relay`,00H
        EXTERN `??buttonPressAction::?relay`
        FUNCTION `??buttonPressAction::?relay`,00H
        EXTERN `??exitDebugMode::?relay`
        FUNCTION `??exitDebugMode::?relay`,00H
        EXTERN `??initUart::?relay`
        FUNCTION `??initUart::?relay`,00H
        EXTERN `??keusButtonInit::?relay`
        FUNCTION `??keusButtonInit::?relay`,00H
        EXTERN `??keusLEDInit::?relay`
        FUNCTION `??keusLEDInit::?relay`,00H
        EXTERN `??osal_strlen::?relay`
        FUNCTION `??osal_strlen::?relay`,00H
        EXTERN `??parseUart::?relay`
        FUNCTION `??parseUart::?relay`,00H
        EXTERN HalUARTPoll
        FUNCTION HalUARTPoll,0202H
        ARGFRAME ISTACK, 0, STACK
        ARGFRAME PSTACK, 0, STACK
        ARGFRAME XSTACK, 12, STACK
        ARGFRAME IOVERLAY, 0, STATIC
        ARGFRAME DOVERLAY, 0, STATIC
        EXTERN HalUARTWrite
        FUNCTION HalUARTWrite,0202H
        ARGFRAME ISTACK, 0, STACK
        ARGFRAME PSTACK, 0, STACK
        ARGFRAME XSTACK, 12, STACK
        ARGFRAME IOVERLAY, 0, STATIC
        ARGFRAME DOVERLAY, 0, STATIC
        EXTERN KeusTimerUtilInit
        FUNCTION KeusTimerUtilInit,0202H
        ARGFRAME ISTACK, 0, STACK
        ARGFRAME PSTACK, 0, STACK
        ARGFRAME XSTACK, 12, STACK
        ARGFRAME IOVERLAY, 0, STATIC
        ARGFRAME DOVERLAY, 0, STATIC
        EXTERN KeusTimerUtilStartTimer
        FUNCTION KeusTimerUtilStartTimer,0202H
        ARGFRAME ISTACK, 0, STACK
        ARGFRAME PSTACK, 0, STACK
        ARGFRAME XSTACK, 12, STACK
        ARGFRAME IOVERLAY, 0, STATIC
        ARGFRAME DOVERLAY, 0, STATIC
        EXTERN buttonPressAction
        FUNCTION buttonPressAction,0202H
        ARGFRAME ISTACK, 0, STACK
        ARGFRAME PSTACK, 0, STACK
        ARGFRAME XSTACK, 12, STACK
        ARGFRAME IOVERLAY, 0, STATIC
        ARGFRAME DOVERLAY, 0, STATIC
        EXTERN exitDebugMode
        FUNCTION exitDebugMode,0202H
        ARGFRAME ISTACK, 0, STACK
        ARGFRAME PSTACK, 0, STACK
        ARGFRAME XSTACK, 12, STACK
        ARGFRAME IOVERLAY, 0, STATIC
        ARGFRAME DOVERLAY, 0, STATIC
        EXTERN initUart
        FUNCTION initUart,0202H
        ARGFRAME ISTACK, 0, STACK
        ARGFRAME PSTACK, 0, STACK
        ARGFRAME XSTACK, 12, STACK
        ARGFRAME IOVERLAY, 0, STATIC
        ARGFRAME DOVERLAY, 0, STATIC
        EXTERN keusButtonInit
        FUNCTION keusButtonInit,0202H
        ARGFRAME ISTACK, 0, STACK
        ARGFRAME PSTACK, 0, STACK
        ARGFRAME XSTACK, 12, STACK
        ARGFRAME IOVERLAY, 0, STATIC
        ARGFRAME DOVERLAY, 0, STATIC
        EXTERN keusLEDInit
        FUNCTION keusLEDInit,0202H
        ARGFRAME ISTACK, 0, STACK
        ARGFRAME PSTACK, 0, STACK
        ARGFRAME XSTACK, 12, STACK
        ARGFRAME IOVERLAY, 0, STATIC
        ARGFRAME DOVERLAY, 0, STATIC
        EXTERN osal_strlen
        FUNCTION osal_strlen,0202H
        ARGFRAME ISTACK, 0, STACK
        ARGFRAME PSTACK, 0, STACK
        ARGFRAME XSTACK, 12, STACK
        ARGFRAME IOVERLAY, 0, STATIC
        ARGFRAME DOVERLAY, 0, STATIC
        EXTERN parseUart
        FUNCTION parseUart,0202H
        ARGFRAME ISTACK, 0, STACK
        ARGFRAME PSTACK, 0, STACK
        ARGFRAME XSTACK, 12, STACK
        ARGFRAME IOVERLAY, 0, STATIC
        ARGFRAME DOVERLAY, 0, STATIC

// D:\VB_Shared\Zigbee Resources\CC2530 Development\Projects\zstack - Working TS Backup\ZMain\TI2530DB\Theme_switch\keusMain.c
//    1 #include "hal_adc.h"
//    2 #include "hal_flash.h"
//    3 #include "hal_lcd.h"
//    4 #include "hal_led.h"
//    5 #include "hal_uart.h"
//    6 #include "hal_drivers.h"
//    7 #include "OnBoard.h"
//    8 #include "OSAL.h"
//    9 #include "OSAL_Nv.h"
//   10 #include "ZComDef.h"
//   11 #include "ZMAC.h"
//   12 #include "keus_gpio_util.h"
//   13 #include "keus_timer_util.h"
//   14 #include "keusconstants.h"
//   15 

        RSEG XDATA_Z:XDATA:NOROOT(0)
        DATA32
//   16 volatile uint32 keusAppEvents = 0;
keusAppEvents:
        DS 4
        REQUIRE __INIT_XDATA_Z
//   17 

        RSEG XDATA_Z:XDATA:NOROOT(0)
        DATA8
//   18 uint8 KEUS_taskID = 0;
KEUS_taskID:
        DS 1
        REQUIRE __INIT_XDATA_Z
//   19 
//   20 // //Event bit masks
//   21 // #define KEUS_BUTTON1 0x1
//   22 // #define KEUS_BUTTON2 0x2
//   23 // #define KEUS_BUTTON3 0x4
//   24 // #define KEUS_BUTTON4 0x8
//   25 // #define KEUS_UART 0x10
//   26 // #define KEUS_APP_EVT1 0X20
//   27 // #define KEUS_APP_EVT2 0X40
//   28 // #define KEUS_APP_EVT3 0X80
//   29 // #define KEUS_APP_EVT4 0X100
//   30 
//   31 // #define BUTTON1_ID 1
//   32 // #define BUTTON2_ID 2
//   33 // #define BUTTON3_ID 3
//   34 // #define BUTTON4_ID 4
//   35 
//   36 extern void keusButtonInit(void);
//   37 extern void exitDebugMode(void);
//   38 
//   39 extern void parseUart(void);
//   40 extern void initUart(void);
//   41 extern void keusLEDInit(void);
//   42 void buttonPressAction(uint8 buttonId);
//   43 
//   44 //void KEUS_delayms(uint16 ms);
//   45 //extern void KEUS_init(uin);
//   46 void KEUS_init(uint8 taskID);
//   47 void KEUS_loop(void); //the actual polling
//   48 

        RSEG BANKED_CODE:HUGECODE:NOROOT(0)
//   49 void KEUS_init(uint8 taskID)
KEUS_init:
          CFI Block cfiBlock0 Using cfiCommon0
          CFI Function KEUS_init
        CODE
//   50 {
        FUNCALL KEUS_init, initUart
        LOCFRAME ISTACK, 0, STACK
        LOCFRAME PSTACK, 0, STACK
        LOCFRAME XSTACK, 12, STACK
        LOCFRAME IOVERLAY, 0, STATIC
        LOCFRAME DOVERLAY, 0, STATIC
        ARGFRAME ISTACK, 0, STACK
        ARGFRAME PSTACK, 0, STACK
        ARGFRAME XSTACK, 12, STACK
        ARGFRAME IOVERLAY, 0, STATIC
        ARGFRAME DOVERLAY, 0, STATIC
        FUNCALL KEUS_init, keusButtonInit
        LOCFRAME ISTACK, 0, STACK
        LOCFRAME PSTACK, 0, STACK
        LOCFRAME XSTACK, 12, STACK
        LOCFRAME IOVERLAY, 0, STATIC
        LOCFRAME DOVERLAY, 0, STATIC
        ARGFRAME ISTACK, 0, STACK
        ARGFRAME PSTACK, 0, STACK
        ARGFRAME XSTACK, 12, STACK
        ARGFRAME IOVERLAY, 0, STATIC
        ARGFRAME DOVERLAY, 0, STATIC
        FUNCALL KEUS_init, keusLEDInit
        LOCFRAME ISTACK, 0, STACK
        LOCFRAME PSTACK, 0, STACK
        LOCFRAME XSTACK, 12, STACK
        LOCFRAME IOVERLAY, 0, STATIC
        LOCFRAME DOVERLAY, 0, STATIC
        ARGFRAME ISTACK, 0, STACK
        ARGFRAME PSTACK, 0, STACK
        ARGFRAME XSTACK, 12, STACK
        ARGFRAME IOVERLAY, 0, STATIC
        ARGFRAME DOVERLAY, 0, STATIC
        FUNCALL KEUS_init, KeusTimerUtilInit
        LOCFRAME ISTACK, 0, STACK
        LOCFRAME PSTACK, 0, STACK
        LOCFRAME XSTACK, 12, STACK
        LOCFRAME IOVERLAY, 0, STATIC
        LOCFRAME DOVERLAY, 0, STATIC
        ARGFRAME ISTACK, 0, STACK
        ARGFRAME PSTACK, 0, STACK
        ARGFRAME XSTACK, 12, STACK
        ARGFRAME IOVERLAY, 0, STATIC
        ARGFRAME DOVERLAY, 0, STATIC
        FUNCALL KEUS_init, KeusTimerUtilStartTimer
        LOCFRAME ISTACK, 0, STACK
        LOCFRAME PSTACK, 0, STACK
        LOCFRAME XSTACK, 12, STACK
        LOCFRAME IOVERLAY, 0, STATIC
        LOCFRAME DOVERLAY, 0, STATIC
        ARGFRAME ISTACK, 0, STACK
        ARGFRAME PSTACK, 0, STACK
        ARGFRAME XSTACK, 12, STACK
        ARGFRAME IOVERLAY, 0, STATIC
        ARGFRAME DOVERLAY, 0, STATIC
        FUNCALL KEUS_init, osal_strlen
        LOCFRAME ISTACK, 0, STACK
        LOCFRAME PSTACK, 0, STACK
        LOCFRAME XSTACK, 12, STACK
        LOCFRAME IOVERLAY, 0, STATIC
        LOCFRAME DOVERLAY, 0, STATIC
        ARGFRAME ISTACK, 0, STACK
        ARGFRAME PSTACK, 0, STACK
        ARGFRAME XSTACK, 12, STACK
        ARGFRAME IOVERLAY, 0, STATIC
        ARGFRAME DOVERLAY, 0, STATIC
        FUNCALL KEUS_init, HalUARTWrite
        LOCFRAME ISTACK, 0, STACK
        LOCFRAME PSTACK, 0, STACK
        LOCFRAME XSTACK, 12, STACK
        LOCFRAME IOVERLAY, 0, STATIC
        LOCFRAME DOVERLAY, 0, STATIC
        ARGFRAME ISTACK, 0, STACK
        ARGFRAME PSTACK, 0, STACK
        ARGFRAME XSTACK, 12, STACK
        ARGFRAME IOVERLAY, 0, STATIC
        ARGFRAME DOVERLAY, 0, STATIC
        REQUIRE ?V0
        REQUIRE ?V2
        REQUIRE ?V3
        MOV       A,#-0xc
        LCALL     ?BANKED_ENTER_XDATA
          CFI DPH0 load(1, XDATA, add(CFA_XSP16, literal(-1)))
          CFI DPL0 load(1, XDATA, add(CFA_XSP16, literal(-2)))
          CFI ?BRET_EXT load(1, XDATA, add(CFA_XSP16, literal(-3)))
          CFI ?RET_HIGH load(1, XDATA, add(CFA_XSP16, literal(-4)))
          CFI ?RET_LOW load(1, XDATA, add(CFA_XSP16, literal(-5)))
          CFI R7 load(1, XDATA, add(CFA_XSP16, literal(-6)))
          CFI V3 load(1, XDATA, add(CFA_XSP16, literal(-7)))
          CFI V2 load(1, XDATA, add(CFA_XSP16, literal(-8)))
          CFI V1 load(1, XDATA, add(CFA_XSP16, literal(-9)))
          CFI V0 load(1, XDATA, add(CFA_XSP16, literal(-10)))
          CFI VB load(1, XDATA, add(CFA_XSP16, literal(-11)))
          CFI R6 load(1, XDATA, add(CFA_XSP16, literal(-12)))
          CFI CFA_SP SP+0
          CFI CFA_XSP16 add(XSP16, 12)
        ; Saved register size: 12
        ; Auto size: 0
//   51   KEUS_taskID = taskID;
        MOV       A,R1
        MOV       DPTR,#KEUS_taskID
        MOVX      @DPTR,A
//   52   initUart();
        ; Setup parameters for call to function initUart
        LCALL     `??initUart::?relay`; Banked call to: initUart
//   53   keusButtonInit();
        ; Setup parameters for call to function keusButtonInit
        LCALL     `??keusButtonInit::?relay`; Banked call to: keusButtonInit
//   54   keusLEDInit();
        ; Setup parameters for call to function keusLEDInit
        LCALL     `??keusLEDInit::?relay`; Banked call to: keusLEDInit
//   55 
//   56   KeusTimerUtilInit();
        ; Setup parameters for call to function KeusTimerUtilInit
        LCALL     `??KeusTimerUtilInit::?relay`; Banked call to: KeusTimerUtilInit
//   57   KeusTimerUtilStartTimer();
        ; Setup parameters for call to function KeusTimerUtilStartTimer
        LCALL     `??KeusTimerUtilStartTimer::?relay`; Banked call to: KeusTimerUtilStartTimer
//   58   //initStatus = KeusThemeSwitchMiniMemoryInit();
//   59   //osal_nv_item_init(SCN_ARR_NVIC_LOCATION, sizeof(arr_scene), (void *)arr_scene);
//   60   //readStatus = KeusThemeSwitchMiniReadConfigDataIntoMemory();
//   61   //restoring scenes back to memory at startup
//   62   //osal_nv_read(SCN_ARR_NVIC_LOCATION, 0, sizeof(arr_scene), (void *)arr_scene);
//   63   HalUARTWrite(HAL_UART_PORT_0, "KEUS INIT", (byte)osal_strlen("KEUS INIT"));
        ; Setup parameters for call to function osal_strlen
        MOV       R2,#`?<Constant "KEUS INIT">` & 0xff
        MOV       R3,#(`?<Constant "KEUS INIT">` >> 8) & 0xff
        LCALL     `??osal_strlen::?relay`; Banked call to: osal_strlen
        MOV       ?V2,R2
        ; Setup parameters for call to function HalUARTWrite
        MOV       R4,?V2
        MOV       R5,#0x0
        MOV       R2,#`?<Constant "KEUS INIT">` & 0xff
        MOV       R3,#(`?<Constant "KEUS INIT">` >> 8) & 0xff
        MOV       R1,#0x0
        LCALL     `??HalUARTWrite::?relay`; Banked call to: HalUARTWrite
//   64 }
        MOV       R7,#0x4
        LJMP      ?BANKED_LEAVE_XDATA
          CFI EndBlock cfiBlock0
//   65 
//   66 

        RSEG BANKED_CODE:HUGECODE:NOROOT(0)
//   67 void KEUS_loop()
KEUS_loop:
          CFI Block cfiBlock1 Using cfiCommon0
          CFI Function KEUS_loop
        CODE
//   68 {
        FUNCALL KEUS_loop, parseUart
        LOCFRAME ISTACK, 0, STACK
        LOCFRAME PSTACK, 0, STACK
        LOCFRAME XSTACK, 12, STACK
        LOCFRAME IOVERLAY, 0, STATIC
        LOCFRAME DOVERLAY, 0, STATIC
        ARGFRAME ISTACK, 0, STACK
        ARGFRAME PSTACK, 0, STACK
        ARGFRAME XSTACK, 12, STACK
        ARGFRAME IOVERLAY, 0, STATIC
        ARGFRAME DOVERLAY, 0, STATIC
        FUNCALL KEUS_loop, HalUARTPoll
        LOCFRAME ISTACK, 0, STACK
        LOCFRAME PSTACK, 0, STACK
        LOCFRAME XSTACK, 12, STACK
        LOCFRAME IOVERLAY, 0, STATIC
        LOCFRAME DOVERLAY, 0, STATIC
        ARGFRAME ISTACK, 0, STACK
        ARGFRAME PSTACK, 0, STACK
        ARGFRAME XSTACK, 12, STACK
        ARGFRAME IOVERLAY, 0, STATIC
        ARGFRAME DOVERLAY, 0, STATIC
        FUNCALL KEUS_loop, buttonPressAction
        LOCFRAME ISTACK, 0, STACK
        LOCFRAME PSTACK, 0, STACK
        LOCFRAME XSTACK, 12, STACK
        LOCFRAME IOVERLAY, 0, STATIC
        LOCFRAME DOVERLAY, 0, STATIC
        ARGFRAME ISTACK, 0, STACK
        ARGFRAME PSTACK, 0, STACK
        ARGFRAME XSTACK, 12, STACK
        ARGFRAME IOVERLAY, 0, STATIC
        ARGFRAME DOVERLAY, 0, STATIC
        FUNCALL KEUS_loop, buttonPressAction
        LOCFRAME ISTACK, 0, STACK
        LOCFRAME PSTACK, 0, STACK
        LOCFRAME XSTACK, 12, STACK
        LOCFRAME IOVERLAY, 0, STATIC
        LOCFRAME DOVERLAY, 0, STATIC
        ARGFRAME ISTACK, 0, STACK
        ARGFRAME PSTACK, 0, STACK
        ARGFRAME XSTACK, 12, STACK
        ARGFRAME IOVERLAY, 0, STATIC
        ARGFRAME DOVERLAY, 0, STATIC
        FUNCALL KEUS_loop, buttonPressAction
        LOCFRAME ISTACK, 0, STACK
        LOCFRAME PSTACK, 0, STACK
        LOCFRAME XSTACK, 12, STACK
        LOCFRAME IOVERLAY, 0, STATIC
        LOCFRAME DOVERLAY, 0, STATIC
        ARGFRAME ISTACK, 0, STACK
        ARGFRAME PSTACK, 0, STACK
        ARGFRAME XSTACK, 12, STACK
        ARGFRAME IOVERLAY, 0, STATIC
        ARGFRAME DOVERLAY, 0, STATIC
        FUNCALL KEUS_loop, buttonPressAction
        LOCFRAME ISTACK, 0, STACK
        LOCFRAME PSTACK, 0, STACK
        LOCFRAME XSTACK, 12, STACK
        LOCFRAME IOVERLAY, 0, STATIC
        LOCFRAME DOVERLAY, 0, STATIC
        ARGFRAME ISTACK, 0, STACK
        ARGFRAME PSTACK, 0, STACK
        ARGFRAME XSTACK, 12, STACK
        ARGFRAME IOVERLAY, 0, STATIC
        ARGFRAME DOVERLAY, 0, STATIC
        FUNCALL KEUS_loop, exitDebugMode
        LOCFRAME ISTACK, 0, STACK
        LOCFRAME PSTACK, 0, STACK
        LOCFRAME XSTACK, 12, STACK
        LOCFRAME IOVERLAY, 0, STATIC
        LOCFRAME DOVERLAY, 0, STATIC
        ARGFRAME ISTACK, 0, STACK
        ARGFRAME PSTACK, 0, STACK
        ARGFRAME XSTACK, 12, STACK
        ARGFRAME IOVERLAY, 0, STATIC
        ARGFRAME DOVERLAY, 0, STATIC
        REQUIRE ?V0
        REQUIRE ?V1
        REQUIRE ?V2
        REQUIRE ?V3
        MOV       A,#-0xc
        LCALL     ?BANKED_ENTER_XDATA
          CFI DPH0 load(1, XDATA, add(CFA_XSP16, literal(-1)))
          CFI DPL0 load(1, XDATA, add(CFA_XSP16, literal(-2)))
          CFI ?BRET_EXT load(1, XDATA, add(CFA_XSP16, literal(-3)))
          CFI ?RET_HIGH load(1, XDATA, add(CFA_XSP16, literal(-4)))
          CFI ?RET_LOW load(1, XDATA, add(CFA_XSP16, literal(-5)))
          CFI R7 load(1, XDATA, add(CFA_XSP16, literal(-6)))
          CFI V3 load(1, XDATA, add(CFA_XSP16, literal(-7)))
          CFI V2 load(1, XDATA, add(CFA_XSP16, literal(-8)))
          CFI V1 load(1, XDATA, add(CFA_XSP16, literal(-9)))
          CFI V0 load(1, XDATA, add(CFA_XSP16, literal(-10)))
          CFI VB load(1, XDATA, add(CFA_XSP16, literal(-11)))
          CFI R6 load(1, XDATA, add(CFA_XSP16, literal(-12)))
          CFI CFA_SP SP+0
          CFI CFA_XSP16 add(XSP16, 12)
        ; Saved register size: 12
        ; Auto size: 0
        SJMP      ??KEUS_loop_0
//   69   while (1)
//   70   {
//   71     HalUARTPoll();
//   72     //KEUS_delayms(1000);
//   73 
//   74     if (keusAppEvents & KEUS_UART)
//   75     {
//   76       parseUart();
??KEUS_loop_1:
        ; Setup parameters for call to function parseUart
        LCALL     `??parseUart::?relay`; Banked call to: parseUart
//   77       keusAppEvents ^= KEUS_UART;
        MOV       DPTR,#__Constant_10
??KEUS_loop_2:
        MOV       R0,#?V0
        LCALL     ?L_MOV_X
        MOV       DPTR,#keusAppEvents
        MOV       R0,#?V0
        LCALL     ?L_XOR_TO_X
//   78     }
??KEUS_loop_0:
        ; Setup parameters for call to function HalUARTPoll
        LCALL     `??HalUARTPoll::?relay`; Banked call to: HalUARTPoll
        MOV       DPTR,#keusAppEvents
        MOV       R0,#?V0
        LCALL     ?L_MOV_X
        MOV       A,?V0
        ANL       A,#0x10
        JNZ       ??KEUS_loop_1
//   79     else if (keusAppEvents & KEUS_BUTTON1)
        MOV       DPTR,#keusAppEvents
        MOV       R0,#?V0
        LCALL     ?L_MOV_X
        MOV       A,?V0
        MOV       C,0xE0 /* A   */.0
        JNC       ??KEUS_loop_3
//   80     {
//   81       buttonPressAction(BUTTON1_ID);
        ; Setup parameters for call to function buttonPressAction
        MOV       R1,#0x1
        LCALL     `??buttonPressAction::?relay`; Banked call to: buttonPressAction
//   82       keusAppEvents ^= KEUS_BUTTON1;
        MOV       DPTR,#__Constant_1
        SJMP      ??KEUS_loop_2
//   83     }
//   84     else if (keusAppEvents & KEUS_BUTTON2)
??KEUS_loop_3:
        MOV       DPTR,#keusAppEvents
        MOV       R0,#?V0
        LCALL     ?L_MOV_X
        MOV       A,?V0
        ANL       A,#0x2
        JZ        ??KEUS_loop_4
//   85     {
//   86       buttonPressAction(BUTTON2_ID);
        ; Setup parameters for call to function buttonPressAction
        MOV       R1,#0x2
        LCALL     `??buttonPressAction::?relay`; Banked call to: buttonPressAction
//   87       keusAppEvents ^= KEUS_BUTTON2;
        MOV       DPTR,#__Constant_2
        SJMP      ??KEUS_loop_2
//   88     }
//   89     else if (keusAppEvents & KEUS_BUTTON3)
??KEUS_loop_4:
        MOV       DPTR,#keusAppEvents
        MOV       R0,#?V0
        LCALL     ?L_MOV_X
        MOV       A,?V0
        ANL       A,#0x4
        JZ        ??KEUS_loop_5
//   90     {
//   91       buttonPressAction(BUTTON3_ID);
        ; Setup parameters for call to function buttonPressAction
        MOV       R1,#0x3
        LCALL     `??buttonPressAction::?relay`; Banked call to: buttonPressAction
//   92       keusAppEvents ^= KEUS_BUTTON3;
        MOV       DPTR,#__Constant_4
        SJMP      ??KEUS_loop_2
//   93     }
//   94     else if (keusAppEvents & KEUS_BUTTON4)
??KEUS_loop_5:
        MOV       DPTR,#keusAppEvents
        MOV       R0,#?V0
        LCALL     ?L_MOV_X
        MOV       A,?V0
        ANL       A,#0x8
        JZ        ??KEUS_loop_6
//   95     {
//   96       buttonPressAction(BUTTON4_ID);
        ; Setup parameters for call to function buttonPressAction
        MOV       R1,#0x4
        LCALL     `??buttonPressAction::?relay`; Banked call to: buttonPressAction
//   97       keusAppEvents ^= KEUS_BUTTON4;
        MOV       DPTR,#__Constant_8
        SJMP      ??KEUS_loop_2
//   98     }
//   99     else if (keusAppEvents & KEUS_APP_EVT1)
??KEUS_loop_6:
        MOV       DPTR,#keusAppEvents
        MOV       R0,#?V0
        LCALL     ?L_MOV_X
        MOV       A,?V0
        ANL       A,#0x20
        JZ        ??KEUS_loop_7
//  100     {
//  101       //action here
//  102       keusAppEvents ^= KEUS_APP_EVT1;
        MOV       DPTR,#__Constant_20
        LJMP      ??KEUS_loop_2 & 0xFFFF
//  103     }
//  104     else if (keusAppEvents & KEUS_APP_EVT2)
??KEUS_loop_7:
        MOV       DPTR,#keusAppEvents
        MOV       R0,#?V0
        LCALL     ?L_MOV_X
        MOV       A,?V0
        ANL       A,#0x40
        JZ        ??KEUS_loop_8
//  105     {
//  106       //action here
//  107       keusAppEvents ^= KEUS_APP_EVT2;
        MOV       DPTR,#__Constant_40
        LJMP      ??KEUS_loop_2 & 0xFFFF
//  108     }
//  109     else if (keusAppEvents & KEUS_APP_EVT3)
??KEUS_loop_8:
        MOV       DPTR,#keusAppEvents
        MOV       R0,#?V0
        LCALL     ?L_MOV_X
        MOV       A,?V0
        ANL       A,#0x80
        JZ        ??KEUS_loop_9
//  110     {
//  111       //action here
//  112       keusAppEvents ^= KEUS_APP_EVT3;
        MOV       DPTR,#__Constant_80
        LJMP      ??KEUS_loop_2 & 0xFFFF
//  113     }
//  114     else if (keusAppEvents & KEUS_APP_EVT4)
??KEUS_loop_9:
        MOV       DPTR,#keusAppEvents
        MOV       R0,#?V0
        LCALL     ?L_MOV_X
        MOV       A,?V1
        ANL       A,#0x1
        JNZ       $+5
        LJMP      ??KEUS_loop_0 & 0xFFFF
//  115     {
//  116       exitDebugMode();
        ; Setup parameters for call to function exitDebugMode
        LCALL     `??exitDebugMode::?relay`; Banked call to: exitDebugMode
//  117       keusAppEvents ^= KEUS_APP_EVT4;
        MOV       DPTR,#__Constant_100
        LJMP      ??KEUS_loop_2 & 0xFFFF
//  118     }
//  119   }
//  120 }
          CFI EndBlock cfiBlock1

        RSEG BANK_RELAYS:CODE:REORDER:NOROOT(0)
`??KEUS_init::?relay`:
        CODE
        LCALL   ?BDISPATCH
        DATA24
        DC24    KEUS_init

        RSEG BANK_RELAYS:CODE:REORDER:NOROOT(0)
`??KEUS_loop::?relay`:
        CODE
        LCALL   ?BDISPATCH
        DATA24
        DC24    KEUS_loop

        RSEG XDATA_ROM_C:CONST:REORDER:NOROOT(0)
        DATA8
`?<Constant "KEUS INIT">`:
        DB "KEUS INIT"

        RSEG XDATA_ROM_C:CONST:REORDER:NOROOT(0)
        DATA32
__Constant_10:
        DD 16

        RSEG XDATA_ROM_C:CONST:REORDER:NOROOT(0)
        DATA32
__Constant_1:
        DD 1

        RSEG XDATA_ROM_C:CONST:REORDER:NOROOT(0)
        DATA32
__Constant_2:
        DD 2

        RSEG XDATA_ROM_C:CONST:REORDER:NOROOT(0)
        DATA32
__Constant_4:
        DD 4

        RSEG XDATA_ROM_C:CONST:REORDER:NOROOT(0)
        DATA32
__Constant_8:
        DD 8

        RSEG XDATA_ROM_C:CONST:REORDER:NOROOT(0)
        DATA32
__Constant_20:
        DD 32

        RSEG XDATA_ROM_C:CONST:REORDER:NOROOT(0)
        DATA32
__Constant_40:
        DD 64

        RSEG XDATA_ROM_C:CONST:REORDER:NOROOT(0)
        DATA32
__Constant_80:
        DD 128

        RSEG XDATA_ROM_C:CONST:REORDER:NOROOT(0)
        DATA32
__Constant_100:
        DD 256

        END
// 
// 277 bytes in segment BANKED_CODE
//  12 bytes in segment BANK_RELAYS
//  46 bytes in segment XDATA_ROM_C
//   5 bytes in segment XDATA_Z
// 
//  12 bytes of CODE     memory
//  10 bytes of CONST    memory (+ 36 bytes shared)
// 277 bytes of HUGECODE memory
//   5 bytes of XDATA    memory
//
//Errors: none
//Warnings: none
