///////////////////////////////////////////////////////////////////////////////
//
// IAR C/C++ Compiler V10.30.1.6000 for 8051              08/Jan/2020  12:51:20
// Copyright 2004-2018 IAR Systems AB.
// PC-locked license - IAR Embedded Workbench for 8051
//
//    Core               =  plain
//    Code model         =  banked
//    Data model         =  large
//    Calling convention =  xdata reentrant
//    Constant location  =  data_rom
//    Dptr setup         =  1,16
//                          
//    Source file        =  
//        D:\VB_Shared\Zigbee Resources\CC2530 Development\Projects\zstack -
//        Working TS Backup\ZMain\TI2530DB\ZMain.c
//    Command line       =  
//        -f C:\Users\Souvik\AppData\Local\Temp\EW27E4.tmp
//        ("D:\VB_Shared\Zigbee Resources\CC2530 Development\Projects\zstack -
//        Working TS Backup\ZMain\TI2530DB\ZMain.c" -D SECURE=1 -D
//        TC_LINKKEY_JOIN -D NV_INIT -D NV_RESTORE -D HAL_KEY=FALSE -D
//        HAL_LCD=FALSE -D HAL_LED=FALSE -D MULTICAST_ENABLED=FALSE -D ZCL_READ
//        -D ZCL_WRITE -D ZCL_BASIC -D ZCL_IDENTIFY -D
//        KEUS_GPIO_INTERRUPT_HANDLER_DISABLE -D HAL_UART=TRUE -D
//        HAL_UART_ISR=1 -D HAL_UART_DMA=2 -D HAL_UART_DMA_RX_MAX=64 -D
//        HAL_UART_DMA_TX_MAX=64 -D INT_HEAP_LEN=3172 -lC "D:\VB_Shared\Zigbee
//        Resources\CC2530 Development\Projects\zstack - Working TS
//        Backup\HomeAutomation\Theme_Switch\CC2530DB\EndDeviceEB\List" -lA
//        "D:\VB_Shared\Zigbee Resources\CC2530 Development\Projects\zstack -
//        Working TS
//        Backup\HomeAutomation\Theme_Switch\CC2530DB\EndDeviceEB\List"
//        --diag_suppress Pe001,Pa010 -o "D:\VB_Shared\Zigbee Resources\CC2530
//        Development\Projects\zstack - Working TS
//        Backup\HomeAutomation\Theme_Switch\CC2530DB\EndDeviceEB\Obj" -e
//        --debug --core=plain --dptr=16,1 --data_model=large
//        --code_model=banked --calling_convention=xdata_reentrant
//        --place_constants=data_rom --nr_virtual_regs 16 -f
//        "D:\VB_Shared\Zigbee Resources\CC2530 Development\Projects\zstack -
//        Working TS
//        Backup\HomeAutomation\Theme_Switch\CC2530DB\..\..\..\Tools\CC2530DB\f8wEndev.cfg"
//        (-DCPU32MHZ -DROOT=__near_func -DMAC_CFG_TX_DATA_MAX=3
//        -DMAC_CFG_TX_MAX=6 -DMAC_CFG_RX_MAX=3) -f "D:\VB_Shared\Zigbee
//        Resources\CC2530 Development\Projects\zstack - Working TS
//        Backup\HomeAutomation\Theme_Switch\CC2530DB\..\..\..\Tools\CC2530DB\f8wConfig.cfg"
//        (-DZIGBEEPRO -DSECURE=1 -DZG_SECURE_DYNAMIC=0 -DREFLECTOR
//        -DDEFAULT_CHANLIST=0x00000800 -DZDAPP_CONFIG_PAN_ID=0xFFFF
//        -DNWK_START_DELAY=100 -DEXTENDED_JOINING_RANDOM_MASK=0x007F
//        -DBEACON_REQUEST_DELAY=100 -DBEACON_REQ_DELAY_MASK=0x00FF
//        -DLINK_STATUS_JITTER_MASK=0x007F -DROUTE_EXPIRY_TIME=30
//        -DAPSC_ACK_WAIT_DURATION_POLLED=3000 -DNWK_INDIRECT_MSG_TIMEOUT=7
//        -DMAX_RREQ_ENTRIES=8 -DAPSC_MAX_FRAME_RETRIES=3
//        -DNWK_MAX_DATA_RETRIES=2 -DMAX_POLL_FAILURE_RETRIES=2 -DMAX_BCAST=9
//        -DAPS_MAX_GROUPS=16 -DMAX_RTG_ENTRIES=40 -DNWK_MAX_BINDING_ENTRIES=4
//        -DMAX_BINDING_CLUSTER_IDS=4 -DDEFAULT_KEY={0}
//        -DMAC_MAX_FRAME_SIZE=116 -DZDNWKMGR_MIN_TRANSMISSIONS=20
//        "-DCONST=const __code" -DGENERIC=__generic -DRFD_RCVC_ALWAYS_ON=FALSE
//        -DPOLL_RATE=1000 -DQUEUED_POLL_RATE=100 -DRESPONSE_POLL_RATE=100
//        -DREJOIN_POLL_RATE=440 -DREJOIN_BACKOFF=900000 -DREJOIN_SCAN=900000
//        -DENABLE_LED4_DISABLE_S1) -f "D:\VB_Shared\Zigbee Resources\CC2530
//        Development\Projects\zstack - Working TS
//        Backup\HomeAutomation\Theme_Switch\CC2530DB\..\..\..\Tools\CC2530DB\f8wZCL.cfg"
//        -I "D:\VB_Shared\Zigbee Resources\CC2530 Development\Projects\zstack
//        - Working TS Backup\HomeAutomation\Theme_Switch\CC2530DB\" -I
//        "D:\VB_Shared\Zigbee Resources\CC2530 Development\Projects\zstack -
//        Working TS Backup\HomeAutomation\Theme_Switch\CC2530DB\..\Source\" -I
//        "D:\VB_Shared\Zigbee Resources\CC2530 Development\Projects\zstack -
//        Working TS Backup\HomeAutomation\Theme_Switch\CC2530DB\..\..\Source\"
//        -I "D:\VB_Shared\Zigbee Resources\CC2530 Development\Projects\zstack
//        - Working TS
//        Backup\HomeAutomation\Theme_Switch\CC2530DB\..\..\..\ZMain\TI2530DB\"
//        -I "D:\VB_Shared\Zigbee Resources\CC2530 Development\Projects\zstack
//        - Working TS
//        Backup\HomeAutomation\Theme_Switch\CC2530DB\..\..\..\..\..\Components\hal\include\"
//        -I "D:\VB_Shared\Zigbee Resources\CC2530 Development\Projects\zstack
//        - Working TS
//        Backup\HomeAutomation\Theme_Switch\CC2530DB\..\..\..\..\..\Components\hal\target\CC2530EB\"
//        -I "D:\VB_Shared\Zigbee Resources\CC2530 Development\Projects\zstack
//        - Working TS
//        Backup\HomeAutomation\Theme_Switch\CC2530DB\..\..\..\..\..\Components\mac\include\"
//        -I "D:\VB_Shared\Zigbee Resources\CC2530 Development\Projects\zstack
//        - Working TS
//        Backup\HomeAutomation\Theme_Switch\CC2530DB\..\..\..\..\..\Components\mac\high_level\"
//        -I "D:\VB_Shared\Zigbee Resources\CC2530 Development\Projects\zstack
//        - Working TS
//        Backup\HomeAutomation\Theme_Switch\CC2530DB\..\..\..\..\..\Components\mac\low_level\srf04\"
//        -I "D:\VB_Shared\Zigbee Resources\CC2530 Development\Projects\zstack
//        - Working TS
//        Backup\HomeAutomation\Theme_Switch\CC2530DB\..\..\..\..\..\Components\mac\low_level\srf04\single_chip\"
//        -I "D:\VB_Shared\Zigbee Resources\CC2530 Development\Projects\zstack
//        - Working TS
//        Backup\HomeAutomation\Theme_Switch\CC2530DB\..\..\..\..\..\Components\mt\"
//        -I "D:\VB_Shared\Zigbee Resources\CC2530 Development\Projects\zstack
//        - Working TS
//        Backup\HomeAutomation\Theme_Switch\CC2530DB\..\..\..\..\..\Components\osal\include\"
//        -I "D:\VB_Shared\Zigbee Resources\CC2530 Development\Projects\zstack
//        - Working TS
//        Backup\HomeAutomation\Theme_Switch\CC2530DB\..\..\..\..\..\Components\services\saddr\"
//        -I "D:\VB_Shared\Zigbee Resources\CC2530 Development\Projects\zstack
//        - Working TS
//        Backup\HomeAutomation\Theme_Switch\CC2530DB\..\..\..\..\..\Components\services\sdata\"
//        -I "D:\VB_Shared\Zigbee Resources\CC2530 Development\Projects\zstack
//        - Working TS
//        Backup\HomeAutomation\Theme_Switch\CC2530DB\..\..\..\..\..\Components\stack\af\"
//        -I "D:\VB_Shared\Zigbee Resources\CC2530 Development\Projects\zstack
//        - Working TS
//        Backup\HomeAutomation\Theme_Switch\CC2530DB\..\..\..\..\..\Components\stack\bdb\"
//        -I "D:\VB_Shared\Zigbee Resources\CC2530 Development\Projects\zstack
//        - Working TS
//        Backup\HomeAutomation\Theme_Switch\CC2530DB\..\..\..\..\..\Components\stack\gp\"
//        -I "D:\VB_Shared\Zigbee Resources\CC2530 Development\Projects\zstack
//        - Working TS
//        Backup\HomeAutomation\Theme_Switch\CC2530DB\..\..\..\..\..\Components\stack\nwk\"
//        -I "D:\VB_Shared\Zigbee Resources\CC2530 Development\Projects\zstack
//        - Working TS
//        Backup\HomeAutomation\Theme_Switch\CC2530DB\..\..\..\..\..\Components\stack\sapi\"
//        -I "D:\VB_Shared\Zigbee Resources\CC2530 Development\Projects\zstack
//        - Working TS
//        Backup\HomeAutomation\Theme_Switch\CC2530DB\..\..\..\..\..\Components\stack\sec\"
//        -I "D:\VB_Shared\Zigbee Resources\CC2530 Development\Projects\zstack
//        - Working TS
//        Backup\HomeAutomation\Theme_Switch\CC2530DB\..\..\..\..\..\Components\stack\sys\"
//        -I "D:\VB_Shared\Zigbee Resources\CC2530 Development\Projects\zstack
//        - Working TS
//        Backup\HomeAutomation\Theme_Switch\CC2530DB\..\..\..\..\..\Components\stack\zcl\"
//        -I "D:\VB_Shared\Zigbee Resources\CC2530 Development\Projects\zstack
//        - Working TS
//        Backup\HomeAutomation\Theme_Switch\CC2530DB\..\..\..\..\..\Components\stack\zdo\"
//        -I "D:\VB_Shared\Zigbee Resources\CC2530 Development\Projects\zstack
//        - Working TS
//        Backup\HomeAutomation\Theme_Switch\CC2530DB\..\..\..\..\..\Components\zmac\"
//        -I "D:\VB_Shared\Zigbee Resources\CC2530 Development\Projects\zstack
//        - Working TS
//        Backup\HomeAutomation\Theme_Switch\CC2530DB\..\..\..\..\..\Components\zmac\f8w\"
//        -I "D:\VB_Shared\Zigbee Resources\CC2530 Development\Projects\zstack
//        - Working TS
//        Backup\HomeAutomation\Theme_Switch\CC2530DB\..\..\..\..\..\Components\keus\"
//        -Ohz --require_prototypes)
//    Locale             =  English_USA.1252
//    List file          =  
//        D:\VB_Shared\Zigbee Resources\CC2530 Development\Projects\zstack -
//        Working TS
//        Backup\HomeAutomation\Theme_Switch\CC2530DB\EndDeviceEB\List\ZMain.s51
//
///////////////////////////////////////////////////////////////////////////////

        NAME ZMain

        RTMODEL "__SystemLibrary", "CLib"
        RTMODEL "__calling_convention", "xdata_reentrant"
        RTMODEL "__code_model", "banked"
        RTMODEL "__core", "plain"
        RTMODEL "__data_model", "large"
        RTMODEL "__dptr_size", "16"
        RTMODEL "__extended_stack", "disabled"
        RTMODEL "__location_for_constants", "data"
        RTMODEL "__number_of_dptrs", "1"
        RTMODEL "__register_banks", "*"
        RTMODEL "__rt_version", "1"

        RSEG DOVERLAY:DATA:NOROOT(0)
        RSEG IOVERLAY:IDATA:NOROOT(0)
        RSEG ISTACK:IDATA:NOROOT(0)
        RSEG PSTACK:XDATA:NOROOT(0)
        RSEG XSTACK:XDATA:NOROOT(0)

        EXTERN ?V0
        EXTERN ?V1
        EXTERN ?V2
        EXTERN ?V4
        EXTERN ?V5
        EXTERN ?V6
        EXTERN ?V8
        EXTERN ?V9
        EXTERN ?ALLOC_XSTACK8
        EXTERN ?BANKED_ENTER_XDATA
        EXTERN ?BANKED_LEAVE_XDATA
        EXTERN ?BDISPATCH
        EXTERN ?BRET
        EXTERN ?DEALLOC_XSTACK8
        EXTERN ?MOVE_LONG8_XDATA_XDATA
        EXTERN ?PUSH_XSTACK_I_THREE
        EXTERN ?PUSH_XSTACK_I_TWO
        EXTERN ?XSP

        PUBLIC `??main::?relay`
        FUNCTION `??main::?relay`,0203H
        FUNCTION `??zmain_ext_addr::?relay`,0203H
        PUBWEAK CLKCONCMD
        PUBWEAK CLKCONSTA
        PUBWEAK P0DIR
        PUBWEAK P0INP
        PUBWEAK P1DIR
        PUBWEAK SLEEPCMD
        PUBWEAK SLEEPSTA
        PUBWEAK _A_P0
        PUBWEAK _A_P1
        PUBLIC main
        FUNCTION main,0a1a03H
        ARGFRAME XSTACK, 0, STACK
        FUNCTION zmain_ext_addr,0a1203H
        ARGFRAME XSTACK, 0, STACK
        ARGFRAME IOVERLAY, 0, STATIC
        ARGFRAME DOVERLAY, 0, STATIC
        LOCFRAME ISTACK, 1, STACK
        LOCFRAME XSTACK, 30, STACK
        
          CFI Names cfiNames0
          CFI StackFrame CFA_SP SP IDATA
          CFI StackFrame CFA_PSP16 PSP16 XDATA
          CFI StackFrame CFA_XSP16 XSP16 XDATA
          CFI StaticOverlayFrame CFA_IOVERLAY IOVERLAY
          CFI StaticOverlayFrame CFA_DOVERLAY DOVERLAY
          CFI Resource `PSW.CY`:1, `B.BR0`:1, `B.BR1`:1, `B.BR2`:1, `B.BR3`:1
          CFI Resource `B.BR4`:1, `B.BR5`:1, `B.BR6`:1, `B.BR7`:1, `VB.BR8`:1
          CFI Resource `VB.BR9`:1, `VB.BR10`:1, `VB.BR11`:1, `VB.BR12`:1
          CFI Resource `VB.BR13`:1, `VB.BR14`:1, `VB.BR15`:1, VB:8, B:8, A:8
          CFI Resource PSW:8, DPL0:8, DPH0:8, R0:8, R1:8, R2:8, R3:8, R4:8, R5:8
          CFI Resource R6:8, R7:8, V0:8, V1:8, V2:8, V3:8, V4:8, V5:8, V6:8, V7:8
          CFI Resource V8:8, V9:8, V10:8, V11:8, V12:8, V13:8, V14:8, V15:8, SP:8
          CFI Resource PSPH:8, PSPL:8, PSP16:16, XSPH:8, XSPL:8, XSP16:16
          CFI VirtualResource ?RET:24
          CFI Resource ?BRET_EXT:8
          CFI VirtualResource ?RET_HIGH:8, ?RET_LOW:8
          CFI ResourceParts PSP16 PSPH, PSPL
          CFI ResourceParts XSP16 XSPH, XSPL
          CFI ResourceParts ?RET ?BRET_EXT, ?RET_HIGH, ?RET_LOW
          CFI EndNames cfiNames0
        
          CFI Common cfiCommon0 Using cfiNames0
          CFI CodeAlign 1
          CFI DataAlign -1
          CFI ReturnAddress ?RET CODE
          CFI CFA_DOVERLAY Used
          CFI CFA_IOVERLAY Used
          CFI CFA_SP SP+-3
          CFI CFA_PSP16 PSP16+0
          CFI CFA_XSP16 XSP16+0
          CFI `PSW.CY` Undefined
          CFI `B.BR0` Undefined
          CFI `B.BR1` Undefined
          CFI `B.BR2` Undefined
          CFI `B.BR3` Undefined
          CFI `B.BR4` Undefined
          CFI `B.BR5` Undefined
          CFI `B.BR6` Undefined
          CFI `B.BR7` Undefined
          CFI `VB.BR8` Undefined
          CFI `VB.BR9` Undefined
          CFI `VB.BR10` Undefined
          CFI `VB.BR11` Undefined
          CFI `VB.BR12` Undefined
          CFI `VB.BR13` Undefined
          CFI `VB.BR14` Undefined
          CFI `VB.BR15` Undefined
          CFI VB Undefined
          CFI B Undefined
          CFI A Undefined
          CFI PSW Undefined
          CFI DPL0 Undefined
          CFI DPH0 Undefined
          CFI R0 Undefined
          CFI R1 Undefined
          CFI R2 Undefined
          CFI R3 Undefined
          CFI R4 Undefined
          CFI R5 Undefined
          CFI R6 Undefined
          CFI R7 Undefined
          CFI V0 Undefined
          CFI V1 Undefined
          CFI V2 Undefined
          CFI V3 Undefined
          CFI V4 Undefined
          CFI V5 Undefined
          CFI V6 Undefined
          CFI V7 Undefined
          CFI V8 Undefined
          CFI V9 Undefined
          CFI V10 Undefined
          CFI V11 Undefined
          CFI V12 Undefined
          CFI V13 Undefined
          CFI V14 Undefined
          CFI V15 Undefined
          CFI PSPH Undefined
          CFI PSPL Undefined
          CFI XSPH Undefined
          CFI XSPL Undefined
          CFI ?RET Concat
          CFI ?BRET_EXT Frame(CFA_SP, 3)
          CFI ?RET_HIGH Frame(CFA_SP, 2)
          CFI ?RET_LOW Frame(CFA_SP, 1)
          CFI EndCommon cfiCommon0
        
        
          CFI Common cfiCommon1 Using cfiNames0
          CFI CodeAlign 1
          CFI DataAlign -1
          CFI ReturnAddress ?RET CODE
          CFI CFA_DOVERLAY Used
          CFI CFA_IOVERLAY Used
          CFI CFA_SP SP+-3
          CFI CFA_PSP16 PSP16+0
          CFI CFA_XSP16 XSP16+0
          CFI `PSW.CY` SameValue
          CFI `B.BR0` SameValue
          CFI `B.BR1` SameValue
          CFI `B.BR2` SameValue
          CFI `B.BR3` SameValue
          CFI `B.BR4` SameValue
          CFI `B.BR5` SameValue
          CFI `B.BR6` SameValue
          CFI `B.BR7` SameValue
          CFI `VB.BR8` SameValue
          CFI `VB.BR9` SameValue
          CFI `VB.BR10` SameValue
          CFI `VB.BR11` SameValue
          CFI `VB.BR12` SameValue
          CFI `VB.BR13` SameValue
          CFI `VB.BR14` SameValue
          CFI `VB.BR15` SameValue
          CFI VB SameValue
          CFI B Undefined
          CFI A Undefined
          CFI PSW SameValue
          CFI DPL0 SameValue
          CFI DPH0 SameValue
          CFI R0 Undefined
          CFI R1 Undefined
          CFI R2 Undefined
          CFI R3 Undefined
          CFI R4 Undefined
          CFI R5 Undefined
          CFI R6 SameValue
          CFI R7 SameValue
          CFI V0 SameValue
          CFI V1 SameValue
          CFI V2 SameValue
          CFI V3 SameValue
          CFI V4 SameValue
          CFI V5 SameValue
          CFI V6 SameValue
          CFI V7 SameValue
          CFI V8 SameValue
          CFI V9 SameValue
          CFI V10 SameValue
          CFI V11 SameValue
          CFI V12 SameValue
          CFI V13 SameValue
          CFI V14 SameValue
          CFI V15 SameValue
          CFI PSPH Undefined
          CFI PSPL Undefined
          CFI XSPH Undefined
          CFI XSPL Undefined
          CFI ?RET Concat
          CFI ?BRET_EXT Frame(CFA_SP, 3)
          CFI ?RET_HIGH Frame(CFA_SP, 2)
          CFI ?RET_LOW Frame(CFA_SP, 1)
          CFI EndCommon cfiCommon1
        
        
          CFI Common cfiCommon2 Using cfiNames0
          CFI CodeAlign 1
          CFI DataAlign -1
          CFI ReturnAddress ?RET CODE
          CFI CFA_DOVERLAY Used
          CFI CFA_IOVERLAY Used
          CFI CFA_SP SP+-2
          CFI CFA_PSP16 PSP16+0
          CFI CFA_XSP16 XSP16+0
          CFI `PSW.CY` SameValue
          CFI `B.BR0` SameValue
          CFI `B.BR1` SameValue
          CFI `B.BR2` SameValue
          CFI `B.BR3` SameValue
          CFI `B.BR4` SameValue
          CFI `B.BR5` SameValue
          CFI `B.BR6` SameValue
          CFI `B.BR7` SameValue
          CFI `VB.BR8` SameValue
          CFI `VB.BR9` SameValue
          CFI `VB.BR10` SameValue
          CFI `VB.BR11` SameValue
          CFI `VB.BR12` SameValue
          CFI `VB.BR13` SameValue
          CFI `VB.BR14` SameValue
          CFI `VB.BR15` SameValue
          CFI VB SameValue
          CFI B SameValue
          CFI A SameValue
          CFI PSW SameValue
          CFI DPL0 SameValue
          CFI DPH0 SameValue
          CFI R0 SameValue
          CFI R1 SameValue
          CFI R2 SameValue
          CFI R3 SameValue
          CFI R4 SameValue
          CFI R5 SameValue
          CFI R6 SameValue
          CFI R7 SameValue
          CFI V0 SameValue
          CFI V1 SameValue
          CFI V2 SameValue
          CFI V3 SameValue
          CFI V4 SameValue
          CFI V5 SameValue
          CFI V6 SameValue
          CFI V7 SameValue
          CFI V8 SameValue
          CFI V9 SameValue
          CFI V10 SameValue
          CFI V11 SameValue
          CFI V12 SameValue
          CFI V13 SameValue
          CFI V14 SameValue
          CFI V15 SameValue
          CFI PSPH Undefined
          CFI PSPL Undefined
          CFI XSPH Undefined
          CFI XSPL Undefined
          CFI ?RET Concat
          CFI ?BRET_EXT SameValue
          CFI ?RET_HIGH Frame(CFA_SP, 2)
          CFI ?RET_LOW Frame(CFA_SP, 1)
          CFI EndCommon cfiCommon2
        
HalAdcCheckVdd      SYMBOL "HalAdcCheckVdd"
`??HalAdcCheckVdd::?relay` SYMBOL "?relay", HalAdcCheckVdd
HalDriverInit       SYMBOL "HalDriverInit"
`??HalDriverInit::?relay` SYMBOL "?relay", HalDriverInit
HalFlashRead        SYMBOL "HalFlashRead"
`??HalFlashRead::?relay` SYMBOL "?relay", HalFlashRead
InitBoard           SYMBOL "InitBoard"
`??InitBoard::?relay` SYMBOL "?relay", InitBoard
KEUS_init           SYMBOL "KEUS_init"
`??KEUS_init::?relay` SYMBOL "?relay", KEUS_init
ZMacInit            SYMBOL "ZMacInit"
`??ZMacInit::?relay` SYMBOL "?relay", ZMacInit
ZMacSetReq          SYMBOL "ZMacSetReq"
`??ZMacSetReq::?relay` SYMBOL "?relay", ZMacSetReq
osal_init_system    SYMBOL "osal_init_system"
`??osal_init_system::?relay` SYMBOL "?relay", osal_init_system
osal_int_disable    SYMBOL "osal_int_disable"
`??osal_int_disable::?relay` SYMBOL "?relay", osal_int_disable
osal_int_enable     SYMBOL "osal_int_enable"
`??osal_int_enable::?relay` SYMBOL "?relay", osal_int_enable
osal_memcmp         SYMBOL "osal_memcmp"
`??osal_memcmp::?relay` SYMBOL "?relay", osal_memcmp
osal_memcpy         SYMBOL "osal_memcpy"
`??osal_memcpy::?relay` SYMBOL "?relay", osal_memcpy
osal_nv_init        SYMBOL "osal_nv_init"
`??osal_nv_init::?relay` SYMBOL "?relay", osal_nv_init
osal_nv_item_init   SYMBOL "osal_nv_item_init"
`??osal_nv_item_init::?relay` SYMBOL "?relay", osal_nv_item_init
osal_nv_read        SYMBOL "osal_nv_read"
`??osal_nv_read::?relay` SYMBOL "?relay", osal_nv_read
osal_nv_write       SYMBOL "osal_nv_write"
`??osal_nv_write::?relay` SYMBOL "?relay", osal_nv_write
osal_rand           SYMBOL "osal_rand"
`??osal_rand::?relay` SYMBOL "?relay", osal_rand
osal_start_system   SYMBOL "osal_start_system"
`??osal_start_system::?relay` SYMBOL "?relay", osal_start_system
zgInit              SYMBOL "zgInit"
`??zgInit::?relay`  SYMBOL "?relay", zgInit
main                SYMBOL "main"
`??main::?relay`    SYMBOL "?relay", main

        EXTERN `??HalAdcCheckVdd::?relay`
        FUNCTION `??HalAdcCheckVdd::?relay`,00H
        EXTERN `??HalDriverInit::?relay`
        FUNCTION `??HalDriverInit::?relay`,00H
        EXTERN `??HalFlashRead::?relay`
        FUNCTION `??HalFlashRead::?relay`,00H
        EXTERN `??InitBoard::?relay`
        FUNCTION `??InitBoard::?relay`,00H
        EXTERN `??KEUS_init::?relay`
        FUNCTION `??KEUS_init::?relay`,00H
        EXTERN `??ZMacInit::?relay`
        FUNCTION `??ZMacInit::?relay`,00H
        EXTERN `??ZMacSetReq::?relay`
        FUNCTION `??ZMacSetReq::?relay`,00H
        EXTERN `??osal_init_system::?relay`
        FUNCTION `??osal_init_system::?relay`,00H
        EXTERN `??osal_int_disable::?relay`
        FUNCTION `??osal_int_disable::?relay`,00H
        EXTERN `??osal_int_enable::?relay`
        FUNCTION `??osal_int_enable::?relay`,00H
        EXTERN `??osal_memcmp::?relay`
        FUNCTION `??osal_memcmp::?relay`,00H
        EXTERN `??osal_memcpy::?relay`
        FUNCTION `??osal_memcpy::?relay`,00H
        EXTERN `??osal_nv_init::?relay`
        FUNCTION `??osal_nv_init::?relay`,00H
        EXTERN `??osal_nv_item_init::?relay`
        FUNCTION `??osal_nv_item_init::?relay`,00H
        EXTERN `??osal_nv_read::?relay`
        FUNCTION `??osal_nv_read::?relay`,00H
        EXTERN `??osal_nv_write::?relay`
        FUNCTION `??osal_nv_write::?relay`,00H
        EXTERN `??osal_rand::?relay`
        FUNCTION `??osal_rand::?relay`,00H
        EXTERN `??osal_start_system::?relay`
        FUNCTION `??osal_start_system::?relay`,00H
        EXTERN `??zgInit::?relay`
        FUNCTION `??zgInit::?relay`,00H
        EXTERN HalAdcCheckVdd
        FUNCTION HalAdcCheckVdd,0202H
        ARGFRAME ISTACK, 0, STACK
        ARGFRAME PSTACK, 0, STACK
        ARGFRAME XSTACK, 0, STACK
        ARGFRAME IOVERLAY, 0, STATIC
        ARGFRAME DOVERLAY, 0, STATIC
        EXTERN HalDriverInit
        FUNCTION HalDriverInit,0202H
        ARGFRAME ISTACK, 0, STACK
        ARGFRAME PSTACK, 0, STACK
        ARGFRAME XSTACK, 0, STACK
        ARGFRAME IOVERLAY, 0, STATIC
        ARGFRAME DOVERLAY, 0, STATIC
        EXTERN HalFlashRead
        FUNCTION HalFlashRead,0202H
        ARGFRAME ISTACK, 0, STACK
        ARGFRAME PSTACK, 0, STACK
        ARGFRAME XSTACK, 28, STACK
        ARGFRAME IOVERLAY, 0, STATIC
        ARGFRAME DOVERLAY, 0, STATIC
        EXTERN InitBoard
        FUNCTION InitBoard,0202H
        ARGFRAME ISTACK, 0, STACK
        ARGFRAME PSTACK, 0, STACK
        ARGFRAME XSTACK, 0, STACK
        ARGFRAME IOVERLAY, 0, STATIC
        ARGFRAME DOVERLAY, 0, STATIC
        EXTERN KEUS_init
        FUNCTION KEUS_init,0202H
        ARGFRAME ISTACK, 0, STACK
        ARGFRAME PSTACK, 0, STACK
        ARGFRAME XSTACK, 0, STACK
        ARGFRAME IOVERLAY, 0, STATIC
        ARGFRAME DOVERLAY, 0, STATIC
        EXTERN ZMacInit
        FUNCTION ZMacInit,0202H
        ARGFRAME ISTACK, 0, STACK
        ARGFRAME PSTACK, 0, STACK
        ARGFRAME XSTACK, 0, STACK
        ARGFRAME IOVERLAY, 0, STATIC
        ARGFRAME DOVERLAY, 0, STATIC
        EXTERN ZMacSetReq
        FUNCTION ZMacSetReq,0202H
        ARGFRAME ISTACK, 0, STACK
        ARGFRAME PSTACK, 0, STACK
        ARGFRAME XSTACK, 26, STACK
        ARGFRAME IOVERLAY, 0, STATIC
        ARGFRAME DOVERLAY, 0, STATIC
        EXTERN aExtendedAddress
        EXTERN osal_init_system
        FUNCTION osal_init_system,0202H
        ARGFRAME ISTACK, 0, STACK
        ARGFRAME PSTACK, 0, STACK
        ARGFRAME XSTACK, 0, STACK
        ARGFRAME IOVERLAY, 0, STATIC
        ARGFRAME DOVERLAY, 0, STATIC
        EXTERN osal_int_disable
        FUNCTION osal_int_disable,0202H
        ARGFRAME ISTACK, 0, STACK
        ARGFRAME PSTACK, 0, STACK
        ARGFRAME XSTACK, 0, STACK
        ARGFRAME IOVERLAY, 0, STATIC
        ARGFRAME DOVERLAY, 0, STATIC
        EXTERN osal_int_enable
        FUNCTION osal_int_enable,0202H
        ARGFRAME ISTACK, 0, STACK
        ARGFRAME PSTACK, 0, STACK
        ARGFRAME XSTACK, 0, STACK
        ARGFRAME IOVERLAY, 0, STATIC
        ARGFRAME DOVERLAY, 0, STATIC
        EXTERN osal_memcmp
        FUNCTION osal_memcmp,0202H
        ARGFRAME ISTACK, 0, STACK
        ARGFRAME PSTACK, 0, STACK
        ARGFRAME XSTACK, 29, STACK
        ARGFRAME IOVERLAY, 0, STATIC
        ARGFRAME DOVERLAY, 0, STATIC
        EXTERN osal_memcpy
        FUNCTION osal_memcpy,0202H
        ARGFRAME ISTACK, 0, STACK
        ARGFRAME PSTACK, 0, STACK
        ARGFRAME XSTACK, 29, STACK
        ARGFRAME IOVERLAY, 0, STATIC
        ARGFRAME DOVERLAY, 0, STATIC
        EXTERN osal_nv_init
        FUNCTION osal_nv_init,0202H
        ARGFRAME ISTACK, 0, STACK
        ARGFRAME PSTACK, 0, STACK
        ARGFRAME XSTACK, 0, STACK
        ARGFRAME IOVERLAY, 0, STATIC
        ARGFRAME DOVERLAY, 0, STATIC
        EXTERN osal_nv_item_init
        FUNCTION osal_nv_item_init,0202H
        ARGFRAME ISTACK, 0, STACK
        ARGFRAME PSTACK, 0, STACK
        ARGFRAME XSTACK, 28, STACK
        ARGFRAME IOVERLAY, 0, STATIC
        ARGFRAME DOVERLAY, 0, STATIC
        EXTERN osal_nv_read
        FUNCTION osal_nv_read,0202H
        ARGFRAME ISTACK, 0, STACK
        ARGFRAME PSTACK, 0, STACK
        ARGFRAME XSTACK, 30, STACK
        ARGFRAME IOVERLAY, 0, STATIC
        ARGFRAME DOVERLAY, 0, STATIC
        EXTERN osal_nv_write
        FUNCTION osal_nv_write,0202H
        ARGFRAME ISTACK, 0, STACK
        ARGFRAME PSTACK, 0, STACK
        ARGFRAME XSTACK, 30, STACK
        ARGFRAME IOVERLAY, 0, STATIC
        ARGFRAME DOVERLAY, 0, STATIC
        EXTERN osal_rand
        FUNCTION osal_rand,0202H
        ARGFRAME ISTACK, 0, STACK
        ARGFRAME PSTACK, 0, STACK
        ARGFRAME XSTACK, 26, STACK
        ARGFRAME IOVERLAY, 0, STATIC
        ARGFRAME DOVERLAY, 0, STATIC
        EXTERN osal_start_system
        FUNCTION osal_start_system,0202H
        ARGFRAME ISTACK, 0, STACK
        ARGFRAME PSTACK, 0, STACK
        ARGFRAME XSTACK, 0, STACK
        ARGFRAME IOVERLAY, 0, STATIC
        ARGFRAME DOVERLAY, 0, STATIC
        EXTERN zgInit
        FUNCTION zgInit,0202H
        ARGFRAME ISTACK, 0, STACK
        ARGFRAME PSTACK, 0, STACK
        ARGFRAME XSTACK, 0, STACK
        ARGFRAME IOVERLAY, 0, STATIC
        ARGFRAME DOVERLAY, 0, STATIC

// D:\VB_Shared\Zigbee Resources\CC2530 Development\Projects\zstack - Working TS Backup\ZMain\TI2530DB\ZMain.c
//    1 /**************************************************************************************************
//    2   Filename:       ZMain.c
//    3   Revised:        $Date: 2020-06-01 18:54:30 -0700 (Monday, 06 Jan 2020) $
//    4 
//    5   Description:    Mapping Scene to buttons
//    6                   Blinking indication LEDs
//    7                   Keus Theme Switch
//    8 
//    9   Notes:          This version targets the Chipcon CC2530
//   10 
//   11 
//   12 
//   13 **************************************************************************************************/
//   14 
//   15 /*********************************************************************
//   16  * INCLUDES
//   17  */
//   18 
//   19 #ifndef NONWK
//   20 #include "AF.h"
//   21 #endif
//   22 #include "hal_adc.h"

        ASEGN SFR_AN:DATA:NOROOT,080H
// union <unnamed> volatile __sfr _A_P0
_A_P0:
        DATA8
        DS 1

        ASEGN SFR_AN:DATA:NOROOT,08fH
// unsigned char volatile __sfr P0INP
P0INP:
        DATA8
        DS 1

        ASEGN SFR_AN:DATA:NOROOT,090H
// union <unnamed> volatile __sfr _A_P1
_A_P1:
        DATA8
        DS 1

        ASEGN SFR_AN:DATA:NOROOT,09dH
// unsigned char volatile __sfr SLEEPSTA
SLEEPSTA:
        DATA8
        DS 1

        ASEGN SFR_AN:DATA:NOROOT,09eH
// unsigned char volatile __sfr CLKCONSTA
CLKCONSTA:
        DATA8
        DS 1

        ASEGN SFR_AN:DATA:NOROOT,0beH
// unsigned char volatile __sfr SLEEPCMD
SLEEPCMD:
        DATA8
        DS 1

        ASEGN SFR_AN:DATA:NOROOT,0c6H
// unsigned char volatile __sfr CLKCONCMD
CLKCONCMD:
        DATA8
        DS 1

        ASEGN SFR_AN:DATA:NOROOT,0fdH
// unsigned char volatile __sfr P0DIR
P0DIR:
        DATA8
        DS 1

        ASEGN SFR_AN:DATA:NOROOT,0feH
// unsigned char volatile __sfr P1DIR
P1DIR:
        DATA8
        DS 1
//   23 #include "hal_flash.h"
//   24 #include "hal_lcd.h"
//   25 #include "hal_led.h"
//   26 #include "hal_uart.h"
//   27 #include "hal_drivers.h"
//   28 #include "OnBoard.h"
//   29 #include "OSAL.h"
//   30 #include "OSAL_Nv.h"
//   31 #include "ZComDef.h"
//   32 #include "ZMAC.h"
//   33 
//   34 /*********************************************************************
//   35  * CUSTOM CODE
//   36  */
//   37 
//   38 extern void KEUS_init(uint8 taskID);
//   39 extern void KEUS_loop(void);
//   40 
//   41 /*********************************************************************
//   42  * LOCAL FUNCTIONS
//   43  */
//   44 
//   45 static void zmain_ext_addr(void);
//   46 #if defined ZCL_KEY_ESTABLISH
//   47 static void zmain_cert_init(void);
//   48 #endif
//   49 static void zmain_dev_info(void);
//   50 static void zmain_vdd_check(void);
//   51 
//   52 #ifdef LCD_SUPPORTED
//   53 static void zmain_lcd_init(void);
//   54 #endif
//   55 
//   56 /*********************************************************************
//   57  * @fn      main
//   58  * @brief   First function called after startup.
//   59  * @return  don't care
//   60  */

        RSEG BANKED_CODE:HUGECODE:NOROOT(0)
//   61 int main(void)
main:
          CFI Block cfiBlock0 Using cfiCommon0
          CFI Function main
        CODE
//   62 {
        FUNCALL main, osal_int_disable
        LOCFRAME ISTACK, 0, STACK
        LOCFRAME PSTACK, 0, STACK
        LOCFRAME XSTACK, 0, STACK
        LOCFRAME IOVERLAY, 0, STATIC
        LOCFRAME DOVERLAY, 0, STATIC
        ARGFRAME ISTACK, 0, STACK
        ARGFRAME PSTACK, 0, STACK
        ARGFRAME XSTACK, 0, STACK
        ARGFRAME IOVERLAY, 0, STATIC
        ARGFRAME DOVERLAY, 0, STATIC
        FUNCALL main, HalAdcCheckVdd
        LOCFRAME ISTACK, 0, STACK
        LOCFRAME PSTACK, 0, STACK
        LOCFRAME XSTACK, 0, STACK
        LOCFRAME IOVERLAY, 0, STATIC
        LOCFRAME DOVERLAY, 0, STATIC
        ARGFRAME ISTACK, 0, STACK
        ARGFRAME PSTACK, 0, STACK
        ARGFRAME XSTACK, 0, STACK
        ARGFRAME IOVERLAY, 0, STATIC
        ARGFRAME DOVERLAY, 0, STATIC
        FUNCALL main, InitBoard
        LOCFRAME ISTACK, 0, STACK
        LOCFRAME PSTACK, 0, STACK
        LOCFRAME XSTACK, 0, STACK
        LOCFRAME IOVERLAY, 0, STATIC
        LOCFRAME DOVERLAY, 0, STATIC
        ARGFRAME ISTACK, 0, STACK
        ARGFRAME PSTACK, 0, STACK
        ARGFRAME XSTACK, 0, STACK
        ARGFRAME IOVERLAY, 0, STATIC
        ARGFRAME DOVERLAY, 0, STATIC
        FUNCALL main, HalDriverInit
        LOCFRAME ISTACK, 0, STACK
        LOCFRAME PSTACK, 0, STACK
        LOCFRAME XSTACK, 0, STACK
        LOCFRAME IOVERLAY, 0, STATIC
        LOCFRAME DOVERLAY, 0, STATIC
        ARGFRAME ISTACK, 0, STACK
        ARGFRAME PSTACK, 0, STACK
        ARGFRAME XSTACK, 0, STACK
        ARGFRAME IOVERLAY, 0, STATIC
        ARGFRAME DOVERLAY, 0, STATIC
        FUNCALL main, osal_nv_init
        LOCFRAME ISTACK, 0, STACK
        LOCFRAME PSTACK, 0, STACK
        LOCFRAME XSTACK, 0, STACK
        LOCFRAME IOVERLAY, 0, STATIC
        LOCFRAME DOVERLAY, 0, STATIC
        ARGFRAME ISTACK, 0, STACK
        ARGFRAME PSTACK, 0, STACK
        ARGFRAME XSTACK, 0, STACK
        ARGFRAME IOVERLAY, 0, STATIC
        ARGFRAME DOVERLAY, 0, STATIC
        FUNCALL main, ZMacInit
        LOCFRAME ISTACK, 0, STACK
        LOCFRAME PSTACK, 0, STACK
        LOCFRAME XSTACK, 0, STACK
        LOCFRAME IOVERLAY, 0, STATIC
        LOCFRAME DOVERLAY, 0, STATIC
        ARGFRAME ISTACK, 0, STACK
        ARGFRAME PSTACK, 0, STACK
        ARGFRAME XSTACK, 0, STACK
        ARGFRAME IOVERLAY, 0, STATIC
        ARGFRAME DOVERLAY, 0, STATIC
        FUNCALL main, zmain_ext_addr
        LOCFRAME ISTACK, 0, STACK
        LOCFRAME PSTACK, 0, STACK
        LOCFRAME XSTACK, 0, STACK
        LOCFRAME IOVERLAY, 0, STATIC
        LOCFRAME DOVERLAY, 0, STATIC
        ARGFRAME ISTACK, 0, STACK
        ARGFRAME PSTACK, 0, STACK
        ARGFRAME XSTACK, 0, STACK
        ARGFRAME IOVERLAY, 0, STATIC
        ARGFRAME DOVERLAY, 0, STATIC
        FUNCALL main, zgInit
        LOCFRAME ISTACK, 0, STACK
        LOCFRAME PSTACK, 0, STACK
        LOCFRAME XSTACK, 0, STACK
        LOCFRAME IOVERLAY, 0, STATIC
        LOCFRAME DOVERLAY, 0, STATIC
        ARGFRAME ISTACK, 0, STACK
        ARGFRAME PSTACK, 0, STACK
        ARGFRAME XSTACK, 0, STACK
        ARGFRAME IOVERLAY, 0, STATIC
        ARGFRAME DOVERLAY, 0, STATIC
        FUNCALL main, osal_init_system
        LOCFRAME ISTACK, 0, STACK
        LOCFRAME PSTACK, 0, STACK
        LOCFRAME XSTACK, 0, STACK
        LOCFRAME IOVERLAY, 0, STATIC
        LOCFRAME DOVERLAY, 0, STATIC
        ARGFRAME ISTACK, 0, STACK
        ARGFRAME PSTACK, 0, STACK
        ARGFRAME XSTACK, 0, STACK
        ARGFRAME IOVERLAY, 0, STATIC
        ARGFRAME DOVERLAY, 0, STATIC
        FUNCALL main, osal_int_enable
        LOCFRAME ISTACK, 0, STACK
        LOCFRAME PSTACK, 0, STACK
        LOCFRAME XSTACK, 0, STACK
        LOCFRAME IOVERLAY, 0, STATIC
        LOCFRAME DOVERLAY, 0, STATIC
        ARGFRAME ISTACK, 0, STACK
        ARGFRAME PSTACK, 0, STACK
        ARGFRAME XSTACK, 0, STACK
        ARGFRAME IOVERLAY, 0, STATIC
        ARGFRAME DOVERLAY, 0, STATIC
        FUNCALL main, InitBoard
        LOCFRAME ISTACK, 0, STACK
        LOCFRAME PSTACK, 0, STACK
        LOCFRAME XSTACK, 0, STACK
        LOCFRAME IOVERLAY, 0, STATIC
        LOCFRAME DOVERLAY, 0, STATIC
        ARGFRAME ISTACK, 0, STACK
        ARGFRAME PSTACK, 0, STACK
        ARGFRAME XSTACK, 0, STACK
        ARGFRAME IOVERLAY, 0, STATIC
        ARGFRAME DOVERLAY, 0, STATIC
        FUNCALL main, KEUS_init
        LOCFRAME ISTACK, 0, STACK
        LOCFRAME PSTACK, 0, STACK
        LOCFRAME XSTACK, 0, STACK
        LOCFRAME IOVERLAY, 0, STATIC
        LOCFRAME DOVERLAY, 0, STATIC
        ARGFRAME ISTACK, 0, STACK
        ARGFRAME PSTACK, 0, STACK
        ARGFRAME XSTACK, 0, STACK
        ARGFRAME IOVERLAY, 0, STATIC
        ARGFRAME DOVERLAY, 0, STATIC
        FUNCALL main, osal_start_system
        LOCFRAME ISTACK, 0, STACK
        LOCFRAME PSTACK, 0, STACK
        LOCFRAME XSTACK, 0, STACK
        LOCFRAME IOVERLAY, 0, STATIC
        LOCFRAME DOVERLAY, 0, STATIC
        ARGFRAME ISTACK, 0, STACK
        ARGFRAME PSTACK, 0, STACK
        ARGFRAME XSTACK, 0, STACK
        ARGFRAME IOVERLAY, 0, STATIC
        ARGFRAME DOVERLAY, 0, STATIC
        ; Auto size: 0
//   63   // Turn off interrupts
//   64   osal_int_disable(INTS_ALL);
        ; Setup parameters for call to function osal_int_disable
        MOV       R1,#-0x1
        LCALL     `??osal_int_disable::?relay`; Banked call to: osal_int_disable
//   65 
//   66   // Initialization for board related stuff such as LEDs
//   67   HAL_BOARD_INIT();
        ANL       0xbe,#0xfb
??main_0:
        MOV       A,0x9d
        MOV       C,0xE0 /* A   */.6
        JNC       ??main_0
        NOP
        MOV       R0,#-0x8
        MOV       R1,#0x1
??main_1:
        NOP
        MOV       A,R0
        ADD       A,#-0x1
        DEC       R0
        MOV       A,R1
        ADDC      A,#-0x1
        MOV       R1,A
        MOV       A,R0
        ORL       A,R1
        JNZ       ??main_1
        MOV       0xc6,#0x0
??main_2:
        MOV       A,0x9e
        JNZ       ??main_2
        ORL       0xbe,#0x4
        MOV       DPTR,#0x6270
        MOV       A,#0x8
        MOVX      @DPTR,A
        CLR       0x90.0
        ORL       0xfe,#0x1
        CLR       0x90.1
        ORL       0xfe,#0x2
        CLR       0x90.4
        ORL       0xfe,#0x10
        CLR       0x80.1
        ORL       0xfd,#0x2
        ORL       0x8f,#0x1
//   68 
//   69   // Make sure supply voltage is high enough to run
//   70   zmain_vdd_check();
        MOV       R6,#0x10
??main_3:
        ; Setup parameters for call to function HalAdcCheckVdd
        MOV       R1,#0x4e
        LCALL     `??HalAdcCheckVdd::?relay`; Banked call to: HalAdcCheckVdd
        MOV       A,R1
        JZ        ??main_3
        DEC       R6
        MOV       A,R6
        JNZ       ??main_3
//   71 
//   72   // Initialize board I/O
//   73   InitBoard(OB_COLD);
        ; Setup parameters for call to function InitBoard
        MOV       R1,#0x0
        LCALL     `??InitBoard::?relay`; Banked call to: InitBoard
//   74 
//   75   // Initialze HAL drivers
//   76   HalDriverInit();
        ; Setup parameters for call to function HalDriverInit
        LCALL     `??HalDriverInit::?relay`; Banked call to: HalDriverInit
//   77 
//   78   // Initialize NV System
//   79   osal_nv_init(NULL);
        ; Setup parameters for call to function osal_nv_init
        MOV       R2,#0x0
        MOV       R3,#0x0
        LCALL     `??osal_nv_init::?relay`; Banked call to: osal_nv_init
//   80 
//   81   // Initialize the MAC
//   82   ZMacInit();
        ; Setup parameters for call to function ZMacInit
        LCALL     `??ZMacInit::?relay`; Banked call to: ZMacInit
//   83 
//   84   // Determine the extended address
//   85   zmain_ext_addr();
        ; Setup parameters for call to function zmain_ext_addr
        LCALL     `??zmain_ext_addr::?relay`; Banked call to: zmain_ext_addr
//   86 
//   87 #if defined ZCL_KEY_ESTABLISH
//   88   // Initialize the Certicom certificate information.
//   89   zmain_cert_init();
//   90 #endif
//   91 
//   92   // Initialize basic NV items
//   93   zgInit();
        ; Setup parameters for call to function zgInit
        LCALL     `??zgInit::?relay`; Banked call to: zgInit
//   94 
//   95 #ifndef NONWK
//   96   // Since the AF isn't a task, call it's initialization routine
//   97   afInit();
//   98 #endif
//   99 
//  100   // Initialize the operating system
//  101   osal_init_system();
        ; Setup parameters for call to function osal_init_system
        LCALL     `??osal_init_system::?relay`; Banked call to: osal_init_system
//  102 
//  103   // Allow interrupts
//  104   osal_int_enable(INTS_ALL);
        ; Setup parameters for call to function osal_int_enable
        MOV       R1,#-0x1
        LCALL     `??osal_int_enable::?relay`; Banked call to: osal_int_enable
//  105 
//  106   // Final board initialization
//  107   InitBoard(OB_READY);
        ; Setup parameters for call to function InitBoard
        MOV       R1,#0x2
        LCALL     `??InitBoard::?relay`; Banked call to: InitBoard
//  108 
//  109   KEUS_init(0x00);
        ; Setup parameters for call to function KEUS_init
        MOV       R1,#0x0
        LCALL     `??KEUS_init::?relay`; Banked call to: KEUS_init
//  110 
//  111   //KEUS_loop();
//  112 
//  113   // Display information about this device
//  114   zmain_dev_info();
//  115 
//  116 #ifdef WDT_IN_PM1
//  117   /* If WDT is used, this is a good place to enable it. */
//  118   WatchDogEnable(WDTIMX);
//  119 #endif
//  120 
//  121   osal_start_system(); // No Return from here
        ; Setup parameters for call to function osal_start_system
        LCALL     `??osal_start_system::?relay`; Banked call to: osal_start_system
//  122 
//  123   return 0; // Shouldn't get here.
        MOV       R2,#0x0
        MOV       R3,#0x0
        LJMP      ?BRET
          CFI EndBlock cfiBlock0
        REQUIRE SLEEPCMD
        REQUIRE SLEEPSTA
        REQUIRE CLKCONCMD
        REQUIRE CLKCONSTA
        REQUIRE _A_P1
        REQUIRE P1DIR
        REQUIRE _A_P0
        REQUIRE P0DIR
        REQUIRE P0INP
//  124 } // main()
//  125 
//  126 /*********************************************************************
//  127  * @fn      zmain_vdd_check
//  128  * @brief   Check if the Vdd is OK to run the processor.
//  129  * @return  Return if Vdd is ok; otherwise, flash LED, then reset
//  130  *********************************************************************/
//  131 static void zmain_vdd_check(void)
//  132 {
//  133   uint8 cnt = 16;
//  134   
//  135   do
//  136   {
//  137     while (!HalAdcCheckVdd(VDD_MIN_RUN))
//  138       ;
//  139   } while (--cnt);
//  140 }
//  141 
//  142 /**************************************************************************************************
//  143  * @fn          zmain_ext_addr
//  144  *
//  145  * @brief       Execute a prioritized search for a valid extended address and write the results
//  146  *              into the OSAL NV system for use by the system. Temporary address not saved to NV.
//  147  *
//  148  * input parameters
//  149  *
//  150  * None.
//  151  *
//  152  * output parameters
//  153  *
//  154  * None.
//  155  *
//  156  * @return      None.
//  157  **************************************************************************************************
//  158  */

        RSEG BANKED_CODE:HUGECODE:NOROOT(0)
//  159 static void zmain_ext_addr(void)
zmain_ext_addr:
          CFI Block cfiBlock1 Using cfiCommon1
          CFI Function zmain_ext_addr
        CODE
//  160 {
        FUNCALL zmain_ext_addr, osal_nv_item_init
        LOCFRAME ISTACK, 0, STACK
        LOCFRAME PSTACK, 0, STACK
        LOCFRAME XSTACK, 28, STACK
        LOCFRAME IOVERLAY, 0, STATIC
        LOCFRAME DOVERLAY, 0, STATIC
        ARGFRAME ISTACK, 0, STACK
        ARGFRAME PSTACK, 0, STACK
        ARGFRAME XSTACK, 28, STACK
        ARGFRAME IOVERLAY, 0, STATIC
        ARGFRAME DOVERLAY, 0, STATIC
        FUNCALL zmain_ext_addr, osal_nv_read
        LOCFRAME ISTACK, 0, STACK
        LOCFRAME PSTACK, 0, STACK
        LOCFRAME XSTACK, 30, STACK
        LOCFRAME IOVERLAY, 0, STATIC
        LOCFRAME DOVERLAY, 0, STATIC
        ARGFRAME ISTACK, 0, STACK
        ARGFRAME PSTACK, 0, STACK
        ARGFRAME XSTACK, 30, STACK
        ARGFRAME IOVERLAY, 0, STATIC
        ARGFRAME DOVERLAY, 0, STATIC
        FUNCALL zmain_ext_addr, osal_memcmp
        LOCFRAME ISTACK, 0, STACK
        LOCFRAME PSTACK, 0, STACK
        LOCFRAME XSTACK, 29, STACK
        LOCFRAME IOVERLAY, 0, STATIC
        LOCFRAME DOVERLAY, 0, STATIC
        ARGFRAME ISTACK, 0, STACK
        ARGFRAME PSTACK, 0, STACK
        ARGFRAME XSTACK, 29, STACK
        ARGFRAME IOVERLAY, 0, STATIC
        ARGFRAME DOVERLAY, 0, STATIC
        FUNCALL zmain_ext_addr, HalFlashRead
        LOCFRAME ISTACK, 0, STACK
        LOCFRAME PSTACK, 0, STACK
        LOCFRAME XSTACK, 28, STACK
        LOCFRAME IOVERLAY, 0, STATIC
        LOCFRAME DOVERLAY, 0, STATIC
        ARGFRAME ISTACK, 0, STACK
        ARGFRAME PSTACK, 0, STACK
        ARGFRAME XSTACK, 28, STACK
        ARGFRAME IOVERLAY, 0, STATIC
        ARGFRAME DOVERLAY, 0, STATIC
        FUNCALL zmain_ext_addr, osal_memcmp
        LOCFRAME ISTACK, 0, STACK
        LOCFRAME PSTACK, 0, STACK
        LOCFRAME XSTACK, 29, STACK
        LOCFRAME IOVERLAY, 0, STATIC
        LOCFRAME DOVERLAY, 0, STATIC
        ARGFRAME ISTACK, 0, STACK
        ARGFRAME PSTACK, 0, STACK
        ARGFRAME XSTACK, 29, STACK
        ARGFRAME IOVERLAY, 0, STATIC
        ARGFRAME DOVERLAY, 0, STATIC
        FUNCALL zmain_ext_addr, osal_memcmp
        LOCFRAME ISTACK, 0, STACK
        LOCFRAME PSTACK, 0, STACK
        LOCFRAME XSTACK, 29, STACK
        LOCFRAME IOVERLAY, 0, STATIC
        LOCFRAME DOVERLAY, 0, STATIC
        ARGFRAME ISTACK, 0, STACK
        ARGFRAME PSTACK, 0, STACK
        ARGFRAME XSTACK, 29, STACK
        ARGFRAME IOVERLAY, 0, STATIC
        ARGFRAME DOVERLAY, 0, STATIC
        FUNCALL zmain_ext_addr, osal_memcpy
        LOCFRAME ISTACK, 0, STACK
        LOCFRAME PSTACK, 0, STACK
        LOCFRAME XSTACK, 29, STACK
        LOCFRAME IOVERLAY, 0, STATIC
        LOCFRAME DOVERLAY, 0, STATIC
        ARGFRAME ISTACK, 0, STACK
        ARGFRAME PSTACK, 0, STACK
        ARGFRAME XSTACK, 29, STACK
        ARGFRAME IOVERLAY, 0, STATIC
        ARGFRAME DOVERLAY, 0, STATIC
        FUNCALL zmain_ext_addr, osal_rand
        LOCFRAME ISTACK, 0, STACK
        LOCFRAME PSTACK, 0, STACK
        LOCFRAME XSTACK, 26, STACK
        LOCFRAME IOVERLAY, 0, STATIC
        LOCFRAME DOVERLAY, 0, STATIC
        ARGFRAME ISTACK, 0, STACK
        ARGFRAME PSTACK, 0, STACK
        ARGFRAME XSTACK, 26, STACK
        ARGFRAME IOVERLAY, 0, STATIC
        ARGFRAME DOVERLAY, 0, STATIC
        FUNCALL zmain_ext_addr, osal_nv_write
        LOCFRAME ISTACK, 0, STACK
        LOCFRAME PSTACK, 0, STACK
        LOCFRAME XSTACK, 30, STACK
        LOCFRAME IOVERLAY, 0, STATIC
        LOCFRAME DOVERLAY, 0, STATIC
        ARGFRAME ISTACK, 0, STACK
        ARGFRAME PSTACK, 0, STACK
        ARGFRAME XSTACK, 30, STACK
        ARGFRAME IOVERLAY, 0, STATIC
        ARGFRAME DOVERLAY, 0, STATIC
        FUNCALL zmain_ext_addr, ZMacSetReq
        LOCFRAME ISTACK, 0, STACK
        LOCFRAME PSTACK, 0, STACK
        LOCFRAME XSTACK, 26, STACK
        LOCFRAME IOVERLAY, 0, STATIC
        LOCFRAME DOVERLAY, 0, STATIC
        ARGFRAME ISTACK, 0, STACK
        ARGFRAME PSTACK, 0, STACK
        ARGFRAME XSTACK, 26, STACK
        ARGFRAME IOVERLAY, 0, STATIC
        ARGFRAME DOVERLAY, 0, STATIC
        REQUIRE ?V0
        REQUIRE ?V1
        REQUIRE ?V2
        REQUIRE ?V4
        REQUIRE ?V5
        REQUIRE ?V6
        REQUIRE ?V8
        REQUIRE ?V9
        MOV       A,#-0x12
        LCALL     ?BANKED_ENTER_XDATA
          CFI DPH0 load(1, XDATA, add(CFA_XSP16, literal(-1)))
          CFI DPL0 load(1, XDATA, add(CFA_XSP16, literal(-2)))
          CFI ?BRET_EXT load(1, XDATA, add(CFA_XSP16, literal(-3)))
          CFI ?RET_HIGH load(1, XDATA, add(CFA_XSP16, literal(-4)))
          CFI ?RET_LOW load(1, XDATA, add(CFA_XSP16, literal(-5)))
          CFI R7 load(1, XDATA, add(CFA_XSP16, literal(-6)))
          CFI V9 load(1, XDATA, add(CFA_XSP16, literal(-7)))
          CFI V8 load(1, XDATA, add(CFA_XSP16, literal(-8)))
          CFI V7 load(1, XDATA, add(CFA_XSP16, literal(-9)))
          CFI V6 load(1, XDATA, add(CFA_XSP16, literal(-10)))
          CFI V5 load(1, XDATA, add(CFA_XSP16, literal(-11)))
          CFI V4 load(1, XDATA, add(CFA_XSP16, literal(-12)))
          CFI V3 load(1, XDATA, add(CFA_XSP16, literal(-13)))
          CFI V2 load(1, XDATA, add(CFA_XSP16, literal(-14)))
          CFI V1 load(1, XDATA, add(CFA_XSP16, literal(-15)))
          CFI V0 load(1, XDATA, add(CFA_XSP16, literal(-16)))
          CFI VB load(1, XDATA, add(CFA_XSP16, literal(-17)))
          CFI R6 load(1, XDATA, add(CFA_XSP16, literal(-18)))
          CFI CFA_SP SP+0
          CFI CFA_XSP16 add(XSP16, 18)
        ; Saved register size: 18
        ; Auto size: 8
        MOV       A,#-0x8
        LCALL     ?ALLOC_XSTACK8
          CFI CFA_XSP16 add(XSP16, 26)
//  161   uint8 nullAddr[Z_EXTADDR_LEN] = {0xFF, 0xFF, 0xFF, 0xFF, 0xFF, 0xFF, 0xFF, 0xFF};
        MOV       DPTR,#`?<Constant {255, 255, 255, 255, 255, 255, 255,`
        MOV       R4,?XSP + 0
        MOV       R5,?XSP + 1
        MOV       A,#0x8
        LCALL     ?MOVE_LONG8_XDATA_XDATA
//  162   uint8 writeNV = TRUE;
//  163 
//  164   // First check whether a non-erased extended address exists in the OSAL NV.
//  165   if ((SUCCESS != osal_nv_item_init(ZCD_NV_EXTADDR, Z_EXTADDR_LEN, NULL)) ||
//  166       (SUCCESS != osal_nv_read(ZCD_NV_EXTADDR, 0, Z_EXTADDR_LEN, aExtendedAddress)) ||
//  167       (osal_memcmp(aExtendedAddress, nullAddr, Z_EXTADDR_LEN)))
        MOV       ?V0,#aExtendedAddress & 0xff
        MOV       ?V1,#(aExtendedAddress >> 8) & 0xff
        MOV       ?V2,A
        MOV       R0,?XSP + 0
        MOV       R1,?XSP + 1
        MOV       ?V4,R0
        MOV       ?V5,R1
        MOV       ?V6,A
        ; Setup parameters for call to function osal_nv_item_init
        MOV       ?V8,A
        MOV       ?V9,A
        MOV       R0,#?V8
        LCALL     ?PUSH_XSTACK_I_TWO
          CFI CFA_XSP16 add(XSP16, 28)
        MOV       R4,#0x8
        MOV       R5,#0x0
        MOV       R2,#0x1
        MOV       R3,#0x0
        LCALL     `??osal_nv_item_init::?relay`; Banked call to: osal_nv_item_init
        MOV       A,#0x2
        LCALL     ?DEALLOC_XSTACK8
          CFI CFA_XSP16 add(XSP16, 26)
        MOV       A,R1
        JNZ       ??zmain_ext_addr_0
        ; Setup parameters for call to function osal_nv_read
        MOV       ?V8,#aExtendedAddress & 0xff
        MOV       ?V9,#(aExtendedAddress >> 8) & 0xff
        MOV       R0,#?V8
        LCALL     ?PUSH_XSTACK_I_TWO
          CFI CFA_XSP16 add(XSP16, 28)
        MOV       ?V8,#0x8
        MOV       ?V9,#0x0
        MOV       R0,#?V8
        LCALL     ?PUSH_XSTACK_I_TWO
          CFI CFA_XSP16 add(XSP16, 30)
        MOV       R4,#0x0
        MOV       R5,#0x0
        MOV       R2,#0x1
        MOV       R3,#0x0
        LCALL     `??osal_nv_read::?relay`; Banked call to: osal_nv_read
        MOV       A,#0x4
        LCALL     ?DEALLOC_XSTACK8
          CFI CFA_XSP16 add(XSP16, 26)
        MOV       A,R1
        JNZ       ??zmain_ext_addr_0
        ; Setup parameters for call to function osal_memcmp
        MOV       R0,#?V4
        LCALL     ?PUSH_XSTACK_I_THREE
          CFI CFA_XSP16 add(XSP16, 29)
        MOV       R4,#0x8
        MOV       R5,#0x0
        MOV       R1,?V0
        MOV       R2,?V1
        MOV       R3,?V2
        LCALL     `??osal_memcmp::?relay`; Banked call to: osal_memcmp
        MOV       A,#0x3
        LCALL     ?DEALLOC_XSTACK8
          CFI CFA_XSP16 add(XSP16, 26)
        MOV       A,R1
        JNZ       $+5
        LJMP      ??zmain_ext_addr_1 & 0xFFFF
//  168   {
//  169     // Attempt to read the extended address from the location on the lock bits page
//  170     // where the programming tools know to reserve it.
//  171     HalFlashRead(HAL_FLASH_IEEE_PAGE, HAL_FLASH_IEEE_OSET, aExtendedAddress, Z_EXTADDR_LEN);
??zmain_ext_addr_0:
        ; Setup parameters for call to function HalFlashRead
        MOV       ?V8,#0x8
        MOV       R0,#?V8
        LCALL     ?PUSH_XSTACK_I_TWO
          CFI CFA_XSP16 add(XSP16, 28)
        MOV       R4,#aExtendedAddress & 0xff
        MOV       R5,#(aExtendedAddress >> 8) & 0xff
        MOV       R2,#-0x18
        MOV       R3,#0x7
        MOV       R1,#0x7f
        LCALL     `??HalFlashRead::?relay`; Banked call to: HalFlashRead
        MOV       A,#0x2
        LCALL     ?DEALLOC_XSTACK8
          CFI CFA_XSP16 add(XSP16, 26)
//  172 
//  173     if (osal_memcmp(aExtendedAddress, nullAddr, Z_EXTADDR_LEN))
        ; Setup parameters for call to function osal_memcmp
        MOV       R0,#?V4
        LCALL     ?PUSH_XSTACK_I_THREE
          CFI CFA_XSP16 add(XSP16, 29)
        MOV       R4,#0x8
        MOV       R5,#0x0
        MOV       R1,?V0
        MOV       R2,?V1
        MOV       R3,?V2
        LCALL     `??osal_memcmp::?relay`; Banked call to: osal_memcmp
        MOV       A,#0x3
        LCALL     ?DEALLOC_XSTACK8
          CFI CFA_XSP16 add(XSP16, 26)
        MOV       A,R1
        JZ        ??zmain_ext_addr_2
//  174     {
//  175       // Attempt to read the extended address from the designated location in the Info Page.
//  176       if (!osal_memcmp((uint8 *)(P_INFOPAGE + HAL_INFOP_IEEE_OSET), nullAddr, Z_EXTADDR_LEN))
        ; Setup parameters for call to function osal_memcmp
        MOV       R0,#?V4
        LCALL     ?PUSH_XSTACK_I_THREE
          CFI CFA_XSP16 add(XSP16, 29)
        MOV       R4,#0x8
        MOV       R5,#0x0
        MOV       R1,#0xc
        MOV       R2,#0x78
        MOV       R3,#0x0
        LCALL     `??osal_memcmp::?relay`; Banked call to: osal_memcmp
        MOV       A,#0x3
        LCALL     ?DEALLOC_XSTACK8
          CFI CFA_XSP16 add(XSP16, 26)
        MOV       A,R1
        JNZ       ??zmain_ext_addr_3
//  177       {
//  178         osal_memcpy(aExtendedAddress, (uint8 *)(P_INFOPAGE + HAL_INFOP_IEEE_OSET), Z_EXTADDR_LEN);
        ; Setup parameters for call to function osal_memcpy
        MOV       ?V0,#0xc
        MOV       ?V1,#0x78
        MOV       R0,#?V0
        LCALL     ?PUSH_XSTACK_I_THREE
          CFI CFA_XSP16 add(XSP16, 29)
        MOV       R4,#0x8
        MOV       R5,#0x0
        MOV       R2,#aExtendedAddress & 0xff
        MOV       R3,#(aExtendedAddress >> 8) & 0xff
        LCALL     `??osal_memcpy::?relay`; Banked call to: osal_memcpy
        MOV       A,#0x3
        LCALL     ?DEALLOC_XSTACK8
          CFI CFA_XSP16 add(XSP16, 26)
        SJMP      ??zmain_ext_addr_2
//  179       }
//  180       else // No valid extended address was found.
//  181       {
//  182         uint8 idx;
//  183 
//  184 #if !defined(NV_RESTORE)
//  185         writeNV = FALSE; // Make this a temporary IEEE address
//  186 #endif
//  187 
//  188         /* Attempt to create a sufficiently random extended address for expediency.
//  189          * Note: this is only valid/legal in a test environment and
//  190          *       must never be used for a commercial product.
//  191          */
//  192         for (idx = 0; idx < (Z_EXTADDR_LEN - 2);)
??zmain_ext_addr_3:
        MOV       R6,#0x0
//  193         {
//  194           uint16 randy = osal_rand();
??zmain_ext_addr_4:
        ; Setup parameters for call to function osal_rand
        LCALL     `??osal_rand::?relay`; Banked call to: osal_rand
        MOV       ?V0,R2
//  195           aExtendedAddress[idx++] = LO_UINT16(randy);
        MOV       A,R6
        MOV       R2,A
        MOV       A,#aExtendedAddress & 0xff
        ADD       A,R2
        MOV       DPL,A
        CLR       A
        ADDC      A,#(aExtendedAddress >> 8) & 0xff
        MOV       DPH,A
        MOV       A,?V0
        MOVX      @DPTR,A
        INC       R6
//  196           aExtendedAddress[idx++] = HI_UINT16(randy);
        MOV       A,R6
        MOV       R0,A
        LCALL     ?Subroutine0 & 0xFFFF
//  197         }
??CrossCallReturnLabel_0:
        MOV       A,R3
        MOVX      @DPTR,A
        INC       R6
        MOV       A,R6
        CLR       C
        SUBB      A,#0x6
        JC        ??zmain_ext_addr_4
//  198         // Next-to-MSB identifies ZigBee devicetype.
//  199 #if ZG_BUILD_COORDINATOR_TYPE && !ZG_BUILD_JOINING_TYPE
//  200         aExtendedAddress[idx++] = 0x10;
//  201 #elif ZG_BUILD_RTRONLY_TYPE
//  202         aExtendedAddress[idx++] = 0x20;
//  203 #else
//  204         aExtendedAddress[idx++] = 0x30;
        INC       R0
        LCALL     ?Subroutine0 & 0xFFFF
??CrossCallReturnLabel_1:
        MOV       A,#0x30
        MOVX      @DPTR,A
//  205 #endif
//  206         // MSB has historical signficance.
//  207         aExtendedAddress[idx] = 0xF8;
        INC       R0
        MOV       A,#aExtendedAddress & 0xff
        ADD       A,R0
        MOV       DPL,A
        CLR       A
        ADDC      A,#(aExtendedAddress >> 8) & 0xff
        MOV       DPH,A
        MOV       A,#-0x8
        MOVX      @DPTR,A
//  208       }
//  209     }
//  210 
//  211     if (writeNV)
//  212     {
//  213       (void)osal_nv_write(ZCD_NV_EXTADDR, 0, Z_EXTADDR_LEN, aExtendedAddress);
??zmain_ext_addr_2:
        ; Setup parameters for call to function osal_nv_write
        MOV       ?V0,#aExtendedAddress & 0xff
        MOV       ?V1,#(aExtendedAddress >> 8) & 0xff
        MOV       R0,#?V0
        LCALL     ?PUSH_XSTACK_I_TWO
          CFI CFA_XSP16 add(XSP16, 28)
        MOV       ?V0,#0x8
        MOV       ?V1,#0x0
        MOV       R0,#?V0
        LCALL     ?PUSH_XSTACK_I_TWO
          CFI CFA_XSP16 add(XSP16, 30)
        MOV       R4,#0x0
        MOV       R5,#0x0
        MOV       R2,#0x1
        MOV       R3,#0x0
        LCALL     `??osal_nv_write::?relay`; Banked call to: osal_nv_write
        MOV       A,#0x4
        LCALL     ?DEALLOC_XSTACK8
          CFI CFA_XSP16 add(XSP16, 26)
//  214     }
//  215   }
//  216 
//  217   // Set the MAC PIB extended address according to results from above.
//  218   (void)ZMacSetReq(MAC_EXTENDED_ADDRESS, aExtendedAddress);
??zmain_ext_addr_1:
        ; Setup parameters for call to function ZMacSetReq
        MOV       R2,#aExtendedAddress & 0xff
        MOV       R3,#(aExtendedAddress >> 8) & 0xff
        MOV       R1,#-0x1e
        LCALL     `??ZMacSetReq::?relay`; Banked call to: ZMacSetReq
//  219 }
        MOV       A,#0x8
        LCALL     ?DEALLOC_XSTACK8
          CFI CFA_XSP16 add(XSP16, 18)
        MOV       R7,#0xa
        LJMP      ?BANKED_LEAVE_XDATA
          CFI EndBlock cfiBlock1

        RSEG BANKED_CODE:HUGECODE:NOROOT(0)
?Subroutine0:
          CFI Block cfiCond2 Using cfiCommon1
          CFI Function zmain_ext_addr
          CFI Conditional ??CrossCallReturnLabel_0
          CFI R6 load(1, XDATA, add(CFA_XSP16, literal(-18)))
          CFI VB load(1, XDATA, add(CFA_XSP16, literal(-17)))
          CFI V0 load(1, XDATA, add(CFA_XSP16, literal(-16)))
          CFI V1 load(1, XDATA, add(CFA_XSP16, literal(-15)))
          CFI V2 load(1, XDATA, add(CFA_XSP16, literal(-14)))
          CFI V3 load(1, XDATA, add(CFA_XSP16, literal(-13)))
          CFI V4 load(1, XDATA, add(CFA_XSP16, literal(-12)))
          CFI V5 load(1, XDATA, add(CFA_XSP16, literal(-11)))
          CFI V6 load(1, XDATA, add(CFA_XSP16, literal(-10)))
          CFI V7 load(1, XDATA, add(CFA_XSP16, literal(-9)))
          CFI V8 load(1, XDATA, add(CFA_XSP16, literal(-8)))
          CFI V9 load(1, XDATA, add(CFA_XSP16, literal(-7)))
          CFI R7 load(1, XDATA, add(CFA_XSP16, literal(-6)))
          CFI ?RET_LOW load(1, XDATA, add(CFA_XSP16, literal(-5)))
          CFI ?RET_HIGH load(1, XDATA, add(CFA_XSP16, literal(-4)))
          CFI ?BRET_EXT load(1, XDATA, add(CFA_XSP16, literal(-3)))
          CFI DPL0 load(1, XDATA, add(CFA_XSP16, literal(-2)))
          CFI DPH0 load(1, XDATA, add(CFA_XSP16, literal(-1)))
          CFI CFA_SP SP+-2
          CFI CFA_XSP16 add(XSP16, 26)
          CFI Block cfiCond3 Using cfiCommon1
          CFI (cfiCond3) Function zmain_ext_addr
          CFI (cfiCond3) Conditional ??CrossCallReturnLabel_1
          CFI (cfiCond3) R6 load(1, XDATA, add(CFA_XSP16, literal(-18)))
          CFI (cfiCond3) VB load(1, XDATA, add(CFA_XSP16, literal(-17)))
          CFI (cfiCond3) V0 load(1, XDATA, add(CFA_XSP16, literal(-16)))
          CFI (cfiCond3) V1 load(1, XDATA, add(CFA_XSP16, literal(-15)))
          CFI (cfiCond3) V2 load(1, XDATA, add(CFA_XSP16, literal(-14)))
          CFI (cfiCond3) V3 load(1, XDATA, add(CFA_XSP16, literal(-13)))
          CFI (cfiCond3) V4 load(1, XDATA, add(CFA_XSP16, literal(-12)))
          CFI (cfiCond3) V5 load(1, XDATA, add(CFA_XSP16, literal(-11)))
          CFI (cfiCond3) V6 load(1, XDATA, add(CFA_XSP16, literal(-10)))
          CFI (cfiCond3) V7 load(1, XDATA, add(CFA_XSP16, literal(-9)))
          CFI (cfiCond3) V8 load(1, XDATA, add(CFA_XSP16, literal(-8)))
          CFI (cfiCond3) V9 load(1, XDATA, add(CFA_XSP16, literal(-7)))
          CFI (cfiCond3) R7 load(1, XDATA, add(CFA_XSP16, literal(-6)))
          CFI (cfiCond3) ?RET_LOW load(1, XDATA, add(CFA_XSP16, literal(-5)))
          CFI (cfiCond3) ?RET_HIGH load(1, XDATA, add(CFA_XSP16, literal(-4)))
          CFI (cfiCond3) ?BRET_EXT load(1, XDATA, add(CFA_XSP16, literal(-3)))
          CFI (cfiCond3) DPL0 load(1, XDATA, add(CFA_XSP16, literal(-2)))
          CFI (cfiCond3) DPH0 load(1, XDATA, add(CFA_XSP16, literal(-1)))
          CFI (cfiCond3) CFA_SP SP+-2
          CFI (cfiCond3) CFA_XSP16 add(XSP16, 26)
          CFI Block cfiPicker4 Using cfiCommon2
          CFI (cfiPicker4) NoFunction
          CFI (cfiPicker4) Picker
        MOV       A,#aExtendedAddress & 0xff
        ADD       A,R6
        MOV       DPL,A
        CLR       A
        ADDC      A,#(aExtendedAddress >> 8) & 0xff
        MOV       DPH,A
        RET
          CFI EndBlock cfiCond2
          CFI EndBlock cfiCond3
          CFI EndBlock cfiPicker4

        RSEG BANK_RELAYS:CODE:REORDER:NOROOT(0)
`??main::?relay`:
        CODE
        LCALL   ?BDISPATCH
        DATA24
        DC24    main

        RSEG BANK_RELAYS:CODE:REORDER:NOROOT(0)
`??zmain_ext_addr::?relay`:
        CODE
        LCALL   ?BDISPATCH
        DATA24
        DC24    zmain_ext_addr

        RSEG XDATA_ROM_C:CONST:REORDER:NOROOT(0)
        DATA8
`?<Constant {255, 255, 255, 255, 255, 255, 255,`:
        DB 255
        DB 255
        DB 255
        DB 255
        DB 255
        DB 255
        DB 255
        DB 255

        END
//  220 
//  221 #if defined ZCL_KEY_ESTABLISH
//  222 /**************************************************************************************************
//  223  * @fn          zmain_cert_init
//  224  *
//  225  * @brief       Initialize the Certicom certificate information.
//  226  *
//  227  * input parameters
//  228  *
//  229  * None.
//  230  *
//  231  * output parameters
//  232  *
//  233  * None.
//  234  *
//  235  * @return      None.
//  236  **************************************************************************************************
//  237  */
//  238 static void zmain_cert_init(void)
//  239 {
//  240   uint8 certData[ZCL_KE_IMPLICIT_CERTIFICATE_LEN];
//  241   uint8 nullData[ZCL_KE_IMPLICIT_CERTIFICATE_LEN] = {
//  242       0xFF, 0xFF, 0xFF, 0xFF, 0xFF, 0xFF, 0xFF, 0xFF,
//  243       0xFF, 0xFF, 0xFF, 0xFF, 0xFF, 0xFF, 0xFF, 0xFF,
//  244       0xFF, 0xFF, 0xFF, 0xFF, 0xFF, 0xFF, 0xFF, 0xFF,
//  245       0xFF, 0xFF, 0xFF, 0xFF, 0xFF, 0xFF, 0xFF, 0xFF,
//  246       0xFF, 0xFF, 0xFF, 0xFF, 0xFF, 0xFF, 0xFF, 0xFF,
//  247       0xFF, 0xFF, 0xFF, 0xFF, 0xFF, 0xFF, 0xFF, 0xFF};
//  248 
//  249   (void)osal_nv_item_init(ZCD_NV_IMPLICIT_CERTIFICATE, ZCL_KE_IMPLICIT_CERTIFICATE_LEN, NULL);
//  250   (void)osal_nv_item_init(ZCD_NV_DEVICE_PRIVATE_KEY, ZCL_KE_DEVICE_PRIVATE_KEY_LEN, NULL);
//  251 
//  252   // First check whether non-null certificate data exists in the OSAL NV. To save on code space,
//  253   // just use the ZCD_NV_CA_PUBLIC_KEY as the bellwether for all three.
//  254   if ((SUCCESS != osal_nv_item_init(ZCD_NV_CA_PUBLIC_KEY, ZCL_KE_CA_PUBLIC_KEY_LEN, NULL)) ||
//  255       (SUCCESS != osal_nv_read(ZCD_NV_CA_PUBLIC_KEY, 0, ZCL_KE_CA_PUBLIC_KEY_LEN, certData)) ||
//  256       (osal_memcmp(certData, nullData, ZCL_KE_CA_PUBLIC_KEY_LEN)))
//  257   {
//  258     // Attempt to read the certificate data from its corresponding location on the lock bits page.
//  259     HalFlashRead(HAL_FLASH_IEEE_PAGE, HAL_FLASH_CA_PUBLIC_KEY_OSET, certData,
//  260                  ZCL_KE_CA_PUBLIC_KEY_LEN);
//  261     // If the certificate data is not NULL, use it to update the corresponding NV items.
//  262     if (!osal_memcmp(certData, nullData, ZCL_KE_CA_PUBLIC_KEY_LEN))
//  263     {
//  264       (void)osal_nv_write(ZCD_NV_CA_PUBLIC_KEY, 0, ZCL_KE_CA_PUBLIC_KEY_LEN, certData);
//  265       HalFlashRead(HAL_FLASH_IEEE_PAGE, HAL_FLASH_IMPLICIT_CERT_OSET, certData,
//  266                    ZCL_KE_IMPLICIT_CERTIFICATE_LEN);
//  267       (void)osal_nv_write(ZCD_NV_IMPLICIT_CERTIFICATE, 0,
//  268                           ZCL_KE_IMPLICIT_CERTIFICATE_LEN, certData);
//  269       HalFlashRead(HAL_FLASH_IEEE_PAGE, HAL_FLASH_DEV_PRIVATE_KEY_OSET, certData,
//  270                    ZCL_KE_DEVICE_PRIVATE_KEY_LEN);
//  271       (void)osal_nv_write(ZCD_NV_DEVICE_PRIVATE_KEY, 0, ZCL_KE_DEVICE_PRIVATE_KEY_LEN, certData);
//  272     }
//  273   }
//  274 }
//  275 #endif
//  276 
//  277 /**************************************************************************************************
//  278  * @fn          zmain_dev_info
//  279  *
//  280  * @brief       This displays the IEEE (MSB to LSB) on the LCD.
//  281  *
//  282  * input parameters
//  283  *
//  284  * None.
//  285  *
//  286  * output parameters
//  287  *
//  288  * None.
//  289  *
//  290  * @return      None.
//  291  **************************************************************************************************
//  292  */
//  293 static void zmain_dev_info(void)
//  294 {
//  295 
//  296 #if defined(SERIAL_DEBUG_SUPPORTED) || (defined(LEGACY_LCD_DEBUG) && defined(LCD_SUPPORTED))
//  297   uint8 i;
//  298   uint8 *xad;
//  299   uint8 lcd_buf[Z_EXTADDR_LEN * 2 + 1];
//  300 
//  301   // Display the extended address.
//  302   xad = aExtendedAddress + Z_EXTADDR_LEN - 1;
//  303 
//  304   for (i = 0; i < Z_EXTADDR_LEN * 2; xad--)
//  305   {
//  306     uint8 ch;
//  307     ch = (*xad >> 4) & 0x0F;
//  308     lcd_buf[i++] = ch + ((ch < 10) ? '0' : '7');
//  309     ch = *xad & 0x0F;
//  310     lcd_buf[i++] = ch + ((ch < 10) ? '0' : '7');
//  311   }
//  312   lcd_buf[Z_EXTADDR_LEN * 2] = '\0';
//  313   HalLcdWriteString("IEEE: ", HAL_LCD_DEBUG_LINE_1);
//  314   HalLcdWriteString((char *)lcd_buf, HAL_LCD_DEBUG_LINE_2);
//  315 #endif
//  316 }
//  317 
//  318 #ifdef LCD_SUPPORTED
//  319 /*********************************************************************
//  320  * @fn      zmain_lcd_init
//  321  * @brief   Initialize LCD at start up.
//  322  * @return  none
//  323  *********************************************************************/
//  324 static void zmain_lcd_init(void)
//  325 {
//  326 #ifdef SERIAL_DEBUG_SUPPORTED
//  327   {
//  328     HalLcdWriteString("TexasInstruments", HAL_LCD_DEBUG_LINE_1);
//  329 
//  330 #if defined(MT_MAC_FUNC)
//  331 #if defined(ZDO_COORDINATOR)
//  332     HalLcdWriteString("MAC-MT Coord", HAL_LCD_DEBUG_LINE_2);
//  333 #else
//  334     HalLcdWriteString("MAC-MT Device", HAL_LCD_DEBUG_LINE_2);
//  335 #endif // ZDO
//  336 #elif defined(MT_NWK_FUNC)
//  337 #if defined(ZDO_COORDINATOR)
//  338     HalLcdWriteString("NWK Coordinator", HAL_LCD_DEBUG_LINE_2);
//  339 #else
//  340     HalLcdWriteString("NWK Device", HAL_LCD_DEBUG_LINE_2);
//  341 #endif // ZDO
//  342 #endif // MT_FUNC
//  343   }
//  344 #endif // SERIAL_DEBUG_SUPPORTED
//  345 }
//  346 #endif
//  347 
//  348 /*********************************************************************
//  349 *********************************************************************/
// 
// 508 bytes in segment BANKED_CODE
//  12 bytes in segment BANK_RELAYS
//   9 bytes in segment SFR_AN
//   8 bytes in segment XDATA_ROM_C
// 
//  12 bytes of CODE     memory
//   8 bytes of CONST    memory
//   0 bytes of DATA     memory (+ 9 bytes shared)
// 508 bytes of HUGECODE memory
//
//Errors: none
//Warnings: none
