///////////////////////////////////////////////////////////////////////////////
//
// IAR C/C++ Compiler V10.30.1.6000 for 8051              06/Jan/2020  18:26:38
// Copyright 2004-2018 IAR Systems AB.
// PC-locked license - IAR Embedded Workbench for 8051
//
//    Core               =  plain
//    Code model         =  banked
//    Data model         =  large
//    Calling convention =  xdata reentrant
//    Constant location  =  data_rom
//    Dptr setup         =  1,16
//                          
//    Source file        =  
//        D:\VB_Shared\Zigbee Resources\CC2530
//        Development\Projects\zstack\ZMain\TI2530DB\Theme_switch\keusbutton.c
//    Command line       =  
//        -f C:\Users\Souvik\AppData\Local\Temp\EW6D77.tmp
//        ("D:\VB_Shared\Zigbee Resources\CC2530
//        Development\Projects\zstack\ZMain\TI2530DB\Theme_switch\keusbutton.c"
//        -D SECURE=1 -D TC_LINKKEY_JOIN -D NV_INIT -D NV_RESTORE -D
//        HAL_KEY=FALSE -D HAL_LCD=FALSE -D HAL_LED=FALSE -D
//        MULTICAST_ENABLED=FALSE -D ZCL_READ -D ZCL_WRITE -D ZCL_BASIC -D
//        ZCL_IDENTIFY -D KEUS_GPIO_INTERRUPT_HANDLER_DISABLE -D HAL_UART=TRUE
//        -D HAL_UART_ISR=1 -D HAL_UART_DMA=2 -D HAL_UART_DMA_RX_MAX=64 -D
//        HAL_UART_DMA_TX_MAX=64 -D INT_HEAP_LEN=3172 -lC "D:\VB_Shared\Zigbee
//        Resources\CC2530
//        Development\Projects\zstack\HomeAutomation\Theme_Switch\CC2530DB\EndDeviceEB\List"
//        -lA "D:\VB_Shared\Zigbee Resources\CC2530
//        Development\Projects\zstack\HomeAutomation\Theme_Switch\CC2530DB\EndDeviceEB\List"
//        --diag_suppress Pe001,Pa010 -o "D:\VB_Shared\Zigbee Resources\CC2530
//        Development\Projects\zstack\HomeAutomation\Theme_Switch\CC2530DB\EndDeviceEB\Obj"
//        -e --debug --core=plain --dptr=16,1 --data_model=large
//        --code_model=banked --calling_convention=xdata_reentrant
//        --place_constants=data_rom --nr_virtual_regs 16 -f
//        "D:\VB_Shared\Zigbee Resources\CC2530
//        Development\Projects\zstack\HomeAutomation\Theme_Switch\CC2530DB\..\..\..\Tools\CC2530DB\f8wEndev.cfg"
//        (-DCPU32MHZ -DROOT=__near_func -DMAC_CFG_TX_DATA_MAX=3
//        -DMAC_CFG_TX_MAX=6 -DMAC_CFG_RX_MAX=3) -f "D:\VB_Shared\Zigbee
//        Resources\CC2530
//        Development\Projects\zstack\HomeAutomation\Theme_Switch\CC2530DB\..\..\..\Tools\CC2530DB\f8wConfig.cfg"
//        (-DZIGBEEPRO -DSECURE=1 -DZG_SECURE_DYNAMIC=0 -DREFLECTOR
//        -DDEFAULT_CHANLIST=0x00000800 -DZDAPP_CONFIG_PAN_ID=0xFFFF
//        -DNWK_START_DELAY=100 -DEXTENDED_JOINING_RANDOM_MASK=0x007F
//        -DBEACON_REQUEST_DELAY=100 -DBEACON_REQ_DELAY_MASK=0x00FF
//        -DLINK_STATUS_JITTER_MASK=0x007F -DROUTE_EXPIRY_TIME=30
//        -DAPSC_ACK_WAIT_DURATION_POLLED=3000 -DNWK_INDIRECT_MSG_TIMEOUT=7
//        -DMAX_RREQ_ENTRIES=8 -DAPSC_MAX_FRAME_RETRIES=3
//        -DNWK_MAX_DATA_RETRIES=2 -DMAX_POLL_FAILURE_RETRIES=2 -DMAX_BCAST=9
//        -DAPS_MAX_GROUPS=16 -DMAX_RTG_ENTRIES=40 -DNWK_MAX_BINDING_ENTRIES=4
//        -DMAX_BINDING_CLUSTER_IDS=4 -DDEFAULT_KEY={0}
//        -DMAC_MAX_FRAME_SIZE=116 -DZDNWKMGR_MIN_TRANSMISSIONS=20
//        "-DCONST=const __code" -DGENERIC=__generic -DRFD_RCVC_ALWAYS_ON=FALSE
//        -DPOLL_RATE=1000 -DQUEUED_POLL_RATE=100 -DRESPONSE_POLL_RATE=100
//        -DREJOIN_POLL_RATE=440 -DREJOIN_BACKOFF=900000 -DREJOIN_SCAN=900000
//        -DENABLE_LED4_DISABLE_S1) -f "D:\VB_Shared\Zigbee Resources\CC2530
//        Development\Projects\zstack\HomeAutomation\Theme_Switch\CC2530DB\..\..\..\Tools\CC2530DB\f8wZCL.cfg"
//        -I "D:\VB_Shared\Zigbee Resources\CC2530
//        Development\Projects\zstack\HomeAutomation\Theme_Switch\CC2530DB\" -I
//        "D:\VB_Shared\Zigbee Resources\CC2530
//        Development\Projects\zstack\HomeAutomation\Theme_Switch\CC2530DB\..\Source\"
//        -I "D:\VB_Shared\Zigbee Resources\CC2530
//        Development\Projects\zstack\HomeAutomation\Theme_Switch\CC2530DB\..\..\Source\"
//        -I "D:\VB_Shared\Zigbee Resources\CC2530
//        Development\Projects\zstack\HomeAutomation\Theme_Switch\CC2530DB\..\..\..\ZMain\TI2530DB\"
//        -I "D:\VB_Shared\Zigbee Resources\CC2530
//        Development\Projects\zstack\HomeAutomation\Theme_Switch\CC2530DB\..\..\..\..\..\Components\hal\include\"
//        -I "D:\VB_Shared\Zigbee Resources\CC2530
//        Development\Projects\zstack\HomeAutomation\Theme_Switch\CC2530DB\..\..\..\..\..\Components\hal\target\CC2530EB\"
//        -I "D:\VB_Shared\Zigbee Resources\CC2530
//        Development\Projects\zstack\HomeAutomation\Theme_Switch\CC2530DB\..\..\..\..\..\Components\mac\include\"
//        -I "D:\VB_Shared\Zigbee Resources\CC2530
//        Development\Projects\zstack\HomeAutomation\Theme_Switch\CC2530DB\..\..\..\..\..\Components\mac\high_level\"
//        -I "D:\VB_Shared\Zigbee Resources\CC2530
//        Development\Projects\zstack\HomeAutomation\Theme_Switch\CC2530DB\..\..\..\..\..\Components\mac\low_level\srf04\"
//        -I "D:\VB_Shared\Zigbee Resources\CC2530
//        Development\Projects\zstack\HomeAutomation\Theme_Switch\CC2530DB\..\..\..\..\..\Components\mac\low_level\srf04\single_chip\"
//        -I "D:\VB_Shared\Zigbee Resources\CC2530
//        Development\Projects\zstack\HomeAutomation\Theme_Switch\CC2530DB\..\..\..\..\..\Components\mt\"
//        -I "D:\VB_Shared\Zigbee Resources\CC2530
//        Development\Projects\zstack\HomeAutomation\Theme_Switch\CC2530DB\..\..\..\..\..\Components\osal\include\"
//        -I "D:\VB_Shared\Zigbee Resources\CC2530
//        Development\Projects\zstack\HomeAutomation\Theme_Switch\CC2530DB\..\..\..\..\..\Components\services\saddr\"
//        -I "D:\VB_Shared\Zigbee Resources\CC2530
//        Development\Projects\zstack\HomeAutomation\Theme_Switch\CC2530DB\..\..\..\..\..\Components\services\sdata\"
//        -I "D:\VB_Shared\Zigbee Resources\CC2530
//        Development\Projects\zstack\HomeAutomation\Theme_Switch\CC2530DB\..\..\..\..\..\Components\stack\af\"
//        -I "D:\VB_Shared\Zigbee Resources\CC2530
//        Development\Projects\zstack\HomeAutomation\Theme_Switch\CC2530DB\..\..\..\..\..\Components\stack\bdb\"
//        -I "D:\VB_Shared\Zigbee Resources\CC2530
//        Development\Projects\zstack\HomeAutomation\Theme_Switch\CC2530DB\..\..\..\..\..\Components\stack\gp\"
//        -I "D:\VB_Shared\Zigbee Resources\CC2530
//        Development\Projects\zstack\HomeAutomation\Theme_Switch\CC2530DB\..\..\..\..\..\Components\stack\nwk\"
//        -I "D:\VB_Shared\Zigbee Resources\CC2530
//        Development\Projects\zstack\HomeAutomation\Theme_Switch\CC2530DB\..\..\..\..\..\Components\stack\sapi\"
//        -I "D:\VB_Shared\Zigbee Resources\CC2530
//        Development\Projects\zstack\HomeAutomation\Theme_Switch\CC2530DB\..\..\..\..\..\Components\stack\sec\"
//        -I "D:\VB_Shared\Zigbee Resources\CC2530
//        Development\Projects\zstack\HomeAutomation\Theme_Switch\CC2530DB\..\..\..\..\..\Components\stack\sys\"
//        -I "D:\VB_Shared\Zigbee Resources\CC2530
//        Development\Projects\zstack\HomeAutomation\Theme_Switch\CC2530DB\..\..\..\..\..\Components\stack\zcl\"
//        -I "D:\VB_Shared\Zigbee Resources\CC2530
//        Development\Projects\zstack\HomeAutomation\Theme_Switch\CC2530DB\..\..\..\..\..\Components\stack\zdo\"
//        -I "D:\VB_Shared\Zigbee Resources\CC2530
//        Development\Projects\zstack\HomeAutomation\Theme_Switch\CC2530DB\..\..\..\..\..\Components\zmac\"
//        -I "D:\VB_Shared\Zigbee Resources\CC2530
//        Development\Projects\zstack\HomeAutomation\Theme_Switch\CC2530DB\..\..\..\..\..\Components\zmac\f8w\"
//        -I "D:\VB_Shared\Zigbee Resources\CC2530
//        Development\Projects\zstack\HomeAutomation\Theme_Switch\CC2530DB\..\..\..\..\..\Components\keus\"
//        -Ohz --require_prototypes)
//    Locale             =  English_USA.1252
//    List file          =  
//        D:\VB_Shared\Zigbee Resources\CC2530
//        Development\Projects\zstack\HomeAutomation\Theme_Switch\CC2530DB\EndDeviceEB\List\keusbutton.s51
//
///////////////////////////////////////////////////////////////////////////////

        NAME keusbutton

        RTMODEL "__SystemLibrary", "CLib"
        RTMODEL "__calling_convention", "xdata_reentrant"
        RTMODEL "__code_model", "banked"
        RTMODEL "__core", "plain"
        RTMODEL "__data_model", "large"
        RTMODEL "__dptr_size", "16"
        RTMODEL "__extended_stack", "disabled"
        RTMODEL "__location_for_constants", "data"
        RTMODEL "__number_of_dptrs", "1"
        RTMODEL "__register_banks", "*"
        RTMODEL "__rt_version", "1"

        RSEG DOVERLAY:DATA:NOROOT(0)
        RSEG IOVERLAY:IDATA:NOROOT(0)
        RSEG ISTACK:IDATA:NOROOT(0)
        RSEG PSTACK:XDATA:NOROOT(0)
        RSEG XSTACK:XDATA:NOROOT(0)

        EXTERN ?V0
        EXTERN ?V1
        EXTERN ?V2
        EXTERN ?V3
        EXTERN ?BDISPATCH
        EXTERN ?BRET
        EXTERN ?INTERRUPT_ENTER_XSP
        EXTERN ?INTERRUPT_LEAVE_XSP
        EXTERN ?L_IOR_TO_X
        EXTERN ?L_MOV_X
        EXTERN ?S_SHL
        EXTERN __INIT_XDATA_I

        PUBLIC `??debounceTimerCbk::?relay`
        FUNCTION `??debounceTimerCbk::?relay`,0203H
        PUBWEAK `??halKeusPort1Isr::??INTVEC 123`
        PUBLIC `??keusButtonInit::?relay`
        FUNCTION `??keusButtonInit::?relay`,0203H
        PUBWEAK P1IFG
        PUBWEAK _A_IEN0
        PUBWEAK _A_IRCON2
        PUBWEAK __Constant_1
        PUBWEAK __Constant_2
        PUBWEAK __Constant_4
        PUBWEAK __Constant_8
        PUBLIC buttonPin
        PUBLIC buttonPin2
        PUBLIC buttonPin3
        PUBLIC buttonPin4
        PUBLIC debounceTimer
        PUBLIC debounceTimerCbk
        FUNCTION debounceTimerCbk,021603H
        ARGFRAME XSTACK, 0, STACK
        LOCFRAME ISTACK, 2, STACK
        PUBLIC debounce_read
        PUBLIC halKeusPort1Isr
        FUNCTION halKeusPort1Isr,0a1233H
        ARGFRAME XSTACK, 0, STACK
        LOCFRAME XSTACK, 17, STACK
        PUBLIC keusButtonInit
        FUNCTION keusButtonInit,021203H
        ARGFRAME XSTACK, 0, STACK
        LOCFRAME ISTACK, 2, STACK
        PUBLIC ledPin
        PUBLIC ledPin2
        
          CFI Names cfiNames0
          CFI StackFrame CFA_SP SP IDATA
          CFI StackFrame CFA_PSP16 PSP16 XDATA
          CFI StackFrame CFA_XSP16 XSP16 XDATA
          CFI StaticOverlayFrame CFA_IOVERLAY IOVERLAY
          CFI StaticOverlayFrame CFA_DOVERLAY DOVERLAY
          CFI Resource `PSW.CY`:1, `B.BR0`:1, `B.BR1`:1, `B.BR2`:1, `B.BR3`:1
          CFI Resource `B.BR4`:1, `B.BR5`:1, `B.BR6`:1, `B.BR7`:1, `VB.BR8`:1
          CFI Resource `VB.BR9`:1, `VB.BR10`:1, `VB.BR11`:1, `VB.BR12`:1
          CFI Resource `VB.BR13`:1, `VB.BR14`:1, `VB.BR15`:1, VB:8, B:8, A:8
          CFI Resource PSW:8, DPL0:8, DPH0:8, R0:8, R1:8, R2:8, R3:8, R4:8, R5:8
          CFI Resource R6:8, R7:8, V0:8, V1:8, V2:8, V3:8, V4:8, V5:8, V6:8, V7:8
          CFI Resource V8:8, V9:8, V10:8, V11:8, V12:8, V13:8, V14:8, V15:8, SP:8
          CFI Resource PSPH:8, PSPL:8, PSP16:16, XSPH:8, XSPL:8, XSP16:16
          CFI VirtualResource ?RET:24
          CFI Resource ?BRET_EXT:8
          CFI VirtualResource ?RET_HIGH:8, ?RET_LOW:8
          CFI ResourceParts PSP16 PSPH, PSPL
          CFI ResourceParts XSP16 XSPH, XSPL
          CFI ResourceParts ?RET ?BRET_EXT, ?RET_HIGH, ?RET_LOW
          CFI EndNames cfiNames0
        
          CFI Common cfiCommon0 Using cfiNames0
          CFI CodeAlign 1
          CFI DataAlign -1
          CFI ReturnAddress ?RET CODE
          CFI CFA_DOVERLAY Used
          CFI CFA_IOVERLAY Used
          CFI CFA_SP SP+-3
          CFI CFA_PSP16 PSP16+0
          CFI CFA_XSP16 XSP16+0
          CFI `PSW.CY` SameValue
          CFI `B.BR0` SameValue
          CFI `B.BR1` SameValue
          CFI `B.BR2` SameValue
          CFI `B.BR3` SameValue
          CFI `B.BR4` SameValue
          CFI `B.BR5` SameValue
          CFI `B.BR6` SameValue
          CFI `B.BR7` SameValue
          CFI `VB.BR8` SameValue
          CFI `VB.BR9` SameValue
          CFI `VB.BR10` SameValue
          CFI `VB.BR11` SameValue
          CFI `VB.BR12` SameValue
          CFI `VB.BR13` SameValue
          CFI `VB.BR14` SameValue
          CFI `VB.BR15` SameValue
          CFI VB SameValue
          CFI B Undefined
          CFI A Undefined
          CFI PSW SameValue
          CFI DPL0 SameValue
          CFI DPH0 SameValue
          CFI R0 Undefined
          CFI R1 Undefined
          CFI R2 Undefined
          CFI R3 Undefined
          CFI R4 Undefined
          CFI R5 Undefined
          CFI R6 SameValue
          CFI R7 SameValue
          CFI V0 SameValue
          CFI V1 SameValue
          CFI V2 SameValue
          CFI V3 SameValue
          CFI V4 SameValue
          CFI V5 SameValue
          CFI V6 SameValue
          CFI V7 SameValue
          CFI V8 SameValue
          CFI V9 SameValue
          CFI V10 SameValue
          CFI V11 SameValue
          CFI V12 SameValue
          CFI V13 SameValue
          CFI V14 SameValue
          CFI V15 SameValue
          CFI PSPH Undefined
          CFI PSPL Undefined
          CFI XSPH Undefined
          CFI XSPL Undefined
          CFI ?RET Concat
          CFI ?BRET_EXT Frame(CFA_SP, 3)
          CFI ?RET_HIGH Frame(CFA_SP, 2)
          CFI ?RET_LOW Frame(CFA_SP, 1)
          CFI EndCommon cfiCommon0
        
        
          CFI Common cfiCommon1 Using cfiNames0
          CFI CodeAlign 1
          CFI DataAlign -1
          CFI ReturnAddress ?RET CODE
          CFI CFA_DOVERLAY Used
          CFI CFA_IOVERLAY Used
          CFI CFA_SP SP+-2
          CFI CFA_PSP16 PSP16+0
          CFI CFA_XSP16 XSP16+0
          CFI `PSW.CY` SameValue
          CFI `B.BR0` SameValue
          CFI `B.BR1` SameValue
          CFI `B.BR2` SameValue
          CFI `B.BR3` SameValue
          CFI `B.BR4` SameValue
          CFI `B.BR5` SameValue
          CFI `B.BR6` SameValue
          CFI `B.BR7` SameValue
          CFI `VB.BR8` SameValue
          CFI `VB.BR9` SameValue
          CFI `VB.BR10` SameValue
          CFI `VB.BR11` SameValue
          CFI `VB.BR12` SameValue
          CFI `VB.BR13` SameValue
          CFI `VB.BR14` SameValue
          CFI `VB.BR15` SameValue
          CFI VB SameValue
          CFI B SameValue
          CFI A SameValue
          CFI PSW SameValue
          CFI DPL0 SameValue
          CFI DPH0 SameValue
          CFI R0 SameValue
          CFI R1 SameValue
          CFI R2 SameValue
          CFI R3 SameValue
          CFI R4 SameValue
          CFI R5 SameValue
          CFI R6 SameValue
          CFI R7 SameValue
          CFI V0 SameValue
          CFI V1 SameValue
          CFI V2 SameValue
          CFI V3 SameValue
          CFI V4 SameValue
          CFI V5 SameValue
          CFI V6 SameValue
          CFI V7 SameValue
          CFI V8 SameValue
          CFI V9 SameValue
          CFI V10 SameValue
          CFI V11 SameValue
          CFI V12 SameValue
          CFI V13 SameValue
          CFI V14 SameValue
          CFI V15 SameValue
          CFI PSPH Undefined
          CFI PSPL Undefined
          CFI XSPH Undefined
          CFI XSPL Undefined
          CFI ?RET Concat
          CFI ?BRET_EXT SameValue
          CFI ?RET_HIGH Frame(CFA_SP, 2)
          CFI ?RET_LOW Frame(CFA_SP, 1)
          CFI EndCommon cfiCommon1
        
KeusGPIOEdgeConfiguration SYMBOL "KeusGPIOEdgeConfiguration"
`??KeusGPIOEdgeConfiguration::?relay` SYMBOL "?relay", KeusGPIOEdgeConfiguration
KeusGPIOInterruptEnable SYMBOL "KeusGPIOInterruptEnable"
`??KeusGPIOInterruptEnable::?relay` SYMBOL "?relay", KeusGPIOInterruptEnable
KeusGPIOSetDirection SYMBOL "KeusGPIOSetDirection"
`??KeusGPIOSetDirection::?relay` SYMBOL "?relay", KeusGPIOSetDirection
KeusGPIOSetPinValue SYMBOL "KeusGPIOSetPinValue"
`??KeusGPIOSetPinValue::?relay` SYMBOL "?relay", KeusGPIOSetPinValue
KeusTimerUtilAddTimer SYMBOL "KeusTimerUtilAddTimer"
`??KeusTimerUtilAddTimer::?relay` SYMBOL "?relay", KeusTimerUtilAddTimer
KeusTimerUtilRemoveTimer SYMBOL "KeusTimerUtilRemoveTimer"
`??KeusTimerUtilRemoveTimer::?relay` SYMBOL "?relay", KeusTimerUtilRemoveTimer
debounceTimerCbk    SYMBOL "debounceTimerCbk"
`??debounceTimerCbk::?relay` SYMBOL "?relay", debounceTimerCbk
halKeusPort1Isr     SYMBOL "halKeusPort1Isr"
`??halKeusPort1Isr::??INTVEC 123` SYMBOL "??INTVEC 123", halKeusPort1Isr
keusButtonInit      SYMBOL "keusButtonInit"
`??keusButtonInit::?relay` SYMBOL "?relay", keusButtonInit

        EXTERN `??KeusGPIOEdgeConfiguration::?relay`
        FUNCTION `??KeusGPIOEdgeConfiguration::?relay`,00H
        EXTERN `??KeusGPIOInterruptEnable::?relay`
        FUNCTION `??KeusGPIOInterruptEnable::?relay`,00H
        EXTERN `??KeusGPIOSetDirection::?relay`
        FUNCTION `??KeusGPIOSetDirection::?relay`,00H
        EXTERN `??KeusGPIOSetPinValue::?relay`
        FUNCTION `??KeusGPIOSetPinValue::?relay`,00H
        EXTERN `??KeusTimerUtilAddTimer::?relay`
        FUNCTION `??KeusTimerUtilAddTimer::?relay`,00H
        EXTERN `??KeusTimerUtilRemoveTimer::?relay`
        FUNCTION `??KeusTimerUtilRemoveTimer::?relay`,00H
        EXTERN KeusGPIOEdgeConfiguration
        FUNCTION KeusGPIOEdgeConfiguration,0202H
        ARGFRAME ISTACK, 2, STACK
        ARGFRAME PSTACK, 0, STACK
        ARGFRAME XSTACK, 0, STACK
        ARGFRAME IOVERLAY, 0, STATIC
        ARGFRAME DOVERLAY, 0, STATIC
        EXTERN KeusGPIOInterruptEnable
        FUNCTION KeusGPIOInterruptEnable,0202H
        ARGFRAME ISTACK, 2, STACK
        ARGFRAME PSTACK, 0, STACK
        ARGFRAME XSTACK, 0, STACK
        ARGFRAME IOVERLAY, 0, STATIC
        ARGFRAME DOVERLAY, 0, STATIC
        EXTERN KeusGPIOSetDirection
        FUNCTION KeusGPIOSetDirection,0202H
        ARGFRAME ISTACK, 2, STACK
        ARGFRAME PSTACK, 0, STACK
        ARGFRAME XSTACK, 0, STACK
        ARGFRAME IOVERLAY, 0, STATIC
        ARGFRAME DOVERLAY, 0, STATIC
        EXTERN KeusGPIOSetPinValue
        FUNCTION KeusGPIOSetPinValue,0202H
        ARGFRAME ISTACK, 2, STACK
        ARGFRAME PSTACK, 0, STACK
        ARGFRAME XSTACK, 0, STACK
        ARGFRAME IOVERLAY, 0, STATIC
        ARGFRAME DOVERLAY, 0, STATIC
        EXTERN KeusTimerUtilAddTimer
        FUNCTION KeusTimerUtilAddTimer,0202H
        ARGFRAME ISTACK, 0, STACK
        ARGFRAME PSTACK, 0, STACK
        ARGFRAME XSTACK, 17, STACK
        ARGFRAME IOVERLAY, 0, STATIC
        ARGFRAME DOVERLAY, 0, STATIC
        EXTERN KeusTimerUtilRemoveTimer
        FUNCTION KeusTimerUtilRemoveTimer,0202H
        ARGFRAME ISTACK, 2, STACK
        ARGFRAME PSTACK, 0, STACK
        ARGFRAME XSTACK, 0, STACK
        ARGFRAME IOVERLAY, 0, STATIC
        ARGFRAME DOVERLAY, 0, STATIC
        EXTERN keusAppEvents

// D:\VB_Shared\Zigbee Resources\CC2530 Development\Projects\zstack\ZMain\TI2530DB\Theme_switch\keusbutton.c
//    1 #include "hal_adc.h"

        ASEGN SFR_AN:DATA:NOROOT,08aH
// unsigned char volatile __sfr P1IFG
P1IFG:
        DATA8
        DS 1

        ASEGN SFR_AN:DATA:NOROOT,0a8H
// union <unnamed> volatile __sfr _A_IEN0
_A_IEN0:
        DATA8
        DS 1

        ASEGN SFR_AN:DATA:NOROOT,0e8H
// union <unnamed> volatile __sfr _A_IRCON2
_A_IRCON2:
        DATA8
        DS 1
//    2 #include "hal_flash.h"
//    3 #include "hal_lcd.h"
//    4 #include "hal_led.h"
//    5 #include "hal_uart.h"
//    6 #include "hal_drivers.h"
//    7 #include "OnBoard.h"
//    8 #include "OSAL.h"
//    9 #include "OSAL_Nv.h"
//   10 #include "ZComDef.h"
//   11 #include "ZMAC.h"
//   12 #include "keus_gpio_util.h"
//   13 #include "keus_timer_util.h"
//   14 #include "keusbutton.h"

        RSEG XDATA_I:XDATA:NOROOT(0)
// KeusGPIOPin ledPin
ledPin:
        DATA8
        DS 5
        REQUIRE `?<Initializer for ledPin>`
        REQUIRE __INIT_XDATA_I

        RSEG XDATA_I:XDATA:NOROOT(0)
// KeusGPIOPin ledPin2
ledPin2:
        DATA8
        DS 5
        REQUIRE `?<Initializer for ledPin2>`
        REQUIRE __INIT_XDATA_I

        RSEG XDATA_I:XDATA:NOROOT(0)
// KeusGPIOPin buttonPin
buttonPin:
        DATA8
        DS 5
        REQUIRE `?<Initializer for buttonPin>`
        REQUIRE __INIT_XDATA_I

        RSEG XDATA_I:XDATA:NOROOT(0)
// KeusGPIOPin buttonPin2
buttonPin2:
        DATA8
        DS 5
        REQUIRE `?<Initializer for buttonPin2>`
        REQUIRE __INIT_XDATA_I

        RSEG XDATA_I:XDATA:NOROOT(0)
// KeusGPIOPin buttonPin3
buttonPin3:
        DATA8
        DS 5
        REQUIRE `?<Initializer for buttonPin3>`
        REQUIRE __INIT_XDATA_I

        RSEG XDATA_I:XDATA:NOROOT(0)
// KeusGPIOPin buttonPin4
buttonPin4:
        DATA8
        DS 5
        REQUIRE `?<Initializer for buttonPin4>`
        REQUIRE __INIT_XDATA_I

        RSEG XDATA_I:XDATA:NOROOT(0)
// bool volatile debounce_read
debounce_read:
        DATA8
        DS 1
        REQUIRE `?<Initializer for debounce_read>`
        REQUIRE __INIT_XDATA_I

        RSEG XDATA_I:XDATA:NOROOT(0)
// KeusTimerConfig debounceTimer
debounceTimer:
        DATA8
        DS 8
        REQUIRE `?<Initializer for debounceTimer>`
        REQUIRE __INIT_XDATA_I
//   15 

        RSEG BANKED_CODE:HUGECODE:NOROOT(0)
//   16 void debounceTimerCbk(uint8 timerId)
debounceTimerCbk:
          CFI Block cfiBlock0 Using cfiCommon0
          CFI Function debounceTimerCbk
        CODE
//   17 {
        FUNCALL debounceTimerCbk, KeusTimerUtilRemoveTimer
        LOCFRAME ISTACK, 2, STACK
        LOCFRAME PSTACK, 0, STACK
        LOCFRAME XSTACK, 0, STACK
        LOCFRAME IOVERLAY, 0, STATIC
        LOCFRAME DOVERLAY, 0, STATIC
        ARGFRAME ISTACK, 2, STACK
        ARGFRAME PSTACK, 0, STACK
        ARGFRAME XSTACK, 0, STACK
        ARGFRAME IOVERLAY, 0, STATIC
        ARGFRAME DOVERLAY, 0, STATIC
        PUSH      DPL
          CFI DPL0 Frame(CFA_SP, 4)
          CFI CFA_SP SP+-4
        PUSH      DPH
          CFI DPH0 Frame(CFA_SP, 5)
          CFI CFA_SP SP+-5
        ; Saved register size: 2
        ; Auto size: 0
//   18   debounce_read = true;
        MOV       DPTR,#debounce_read
        MOV       A,#0x1
        MOVX      @DPTR,A
//   19   KeusTimerUtilRemoveTimer(&debounceTimer);
        ; Setup parameters for call to function KeusTimerUtilRemoveTimer
        MOV       R2,#debounceTimer & 0xff
        MOV       R3,#(debounceTimer >> 8) & 0xff
        LCALL     `??KeusTimerUtilRemoveTimer::?relay`; Banked call to: KeusTimerUtilRemoveTimer
//   20 }
          CFI EndBlock cfiBlock0
        REQUIRE ?Subroutine0
        ; // Fall through to label ?Subroutine0

        RSEG BANKED_CODE:HUGECODE:NOROOT(0)
?Subroutine0:
          CFI Block cfiBlock1 Using cfiCommon0
          CFI NoFunction
          CFI CFA_SP SP+-5
          CFI DPL0 Frame(CFA_SP, 4)
          CFI DPH0 Frame(CFA_SP, 5)
        POP       DPH
          CFI CFA_SP SP+-4
          CFI DPH0 SameValue
        POP       DPL
          CFI CFA_SP SP+-3
          CFI DPL0 SameValue
        LJMP      ?BRET
          CFI EndBlock cfiBlock1
//   21 
//   22 

        RSEG BANKED_CODE:HUGECODE:NOROOT(0)
//   23 void keusButtonInit(void)
keusButtonInit:
          CFI Block cfiBlock2 Using cfiCommon0
          CFI Function keusButtonInit
        CODE
//   24 {
        FUNCALL keusButtonInit, KeusGPIOSetDirection
        LOCFRAME ISTACK, 2, STACK
        LOCFRAME PSTACK, 0, STACK
        LOCFRAME XSTACK, 0, STACK
        LOCFRAME IOVERLAY, 0, STATIC
        LOCFRAME DOVERLAY, 0, STATIC
        ARGFRAME ISTACK, 2, STACK
        ARGFRAME PSTACK, 0, STACK
        ARGFRAME XSTACK, 0, STACK
        ARGFRAME IOVERLAY, 0, STATIC
        ARGFRAME DOVERLAY, 0, STATIC
        FUNCALL keusButtonInit, KeusGPIOSetDirection
        LOCFRAME ISTACK, 2, STACK
        LOCFRAME PSTACK, 0, STACK
        LOCFRAME XSTACK, 0, STACK
        LOCFRAME IOVERLAY, 0, STATIC
        LOCFRAME DOVERLAY, 0, STATIC
        ARGFRAME ISTACK, 2, STACK
        ARGFRAME PSTACK, 0, STACK
        ARGFRAME XSTACK, 0, STACK
        ARGFRAME IOVERLAY, 0, STATIC
        ARGFRAME DOVERLAY, 0, STATIC
        FUNCALL keusButtonInit, KeusGPIOSetDirection
        LOCFRAME ISTACK, 2, STACK
        LOCFRAME PSTACK, 0, STACK
        LOCFRAME XSTACK, 0, STACK
        LOCFRAME IOVERLAY, 0, STATIC
        LOCFRAME DOVERLAY, 0, STATIC
        ARGFRAME ISTACK, 2, STACK
        ARGFRAME PSTACK, 0, STACK
        ARGFRAME XSTACK, 0, STACK
        ARGFRAME IOVERLAY, 0, STATIC
        ARGFRAME DOVERLAY, 0, STATIC
        FUNCALL keusButtonInit, KeusGPIOSetDirection
        LOCFRAME ISTACK, 2, STACK
        LOCFRAME PSTACK, 0, STACK
        LOCFRAME XSTACK, 0, STACK
        LOCFRAME IOVERLAY, 0, STATIC
        LOCFRAME DOVERLAY, 0, STATIC
        ARGFRAME ISTACK, 2, STACK
        ARGFRAME PSTACK, 0, STACK
        ARGFRAME XSTACK, 0, STACK
        ARGFRAME IOVERLAY, 0, STATIC
        ARGFRAME DOVERLAY, 0, STATIC
        FUNCALL keusButtonInit, KeusGPIOSetDirection
        LOCFRAME ISTACK, 2, STACK
        LOCFRAME PSTACK, 0, STACK
        LOCFRAME XSTACK, 0, STACK
        LOCFRAME IOVERLAY, 0, STATIC
        LOCFRAME DOVERLAY, 0, STATIC
        ARGFRAME ISTACK, 2, STACK
        ARGFRAME PSTACK, 0, STACK
        ARGFRAME XSTACK, 0, STACK
        ARGFRAME IOVERLAY, 0, STATIC
        ARGFRAME DOVERLAY, 0, STATIC
        FUNCALL keusButtonInit, KeusGPIOSetDirection
        LOCFRAME ISTACK, 2, STACK
        LOCFRAME PSTACK, 0, STACK
        LOCFRAME XSTACK, 0, STACK
        LOCFRAME IOVERLAY, 0, STATIC
        LOCFRAME DOVERLAY, 0, STATIC
        ARGFRAME ISTACK, 2, STACK
        ARGFRAME PSTACK, 0, STACK
        ARGFRAME XSTACK, 0, STACK
        ARGFRAME IOVERLAY, 0, STATIC
        ARGFRAME DOVERLAY, 0, STATIC
        FUNCALL keusButtonInit, KeusGPIOSetPinValue
        LOCFRAME ISTACK, 2, STACK
        LOCFRAME PSTACK, 0, STACK
        LOCFRAME XSTACK, 0, STACK
        LOCFRAME IOVERLAY, 0, STATIC
        LOCFRAME DOVERLAY, 0, STATIC
        ARGFRAME ISTACK, 2, STACK
        ARGFRAME PSTACK, 0, STACK
        ARGFRAME XSTACK, 0, STACK
        ARGFRAME IOVERLAY, 0, STATIC
        ARGFRAME DOVERLAY, 0, STATIC
        FUNCALL keusButtonInit, KeusGPIOSetPinValue
        LOCFRAME ISTACK, 2, STACK
        LOCFRAME PSTACK, 0, STACK
        LOCFRAME XSTACK, 0, STACK
        LOCFRAME IOVERLAY, 0, STATIC
        LOCFRAME DOVERLAY, 0, STATIC
        ARGFRAME ISTACK, 2, STACK
        ARGFRAME PSTACK, 0, STACK
        ARGFRAME XSTACK, 0, STACK
        ARGFRAME IOVERLAY, 0, STATIC
        ARGFRAME DOVERLAY, 0, STATIC
        FUNCALL keusButtonInit, KeusGPIOEdgeConfiguration
        LOCFRAME ISTACK, 2, STACK
        LOCFRAME PSTACK, 0, STACK
        LOCFRAME XSTACK, 0, STACK
        LOCFRAME IOVERLAY, 0, STATIC
        LOCFRAME DOVERLAY, 0, STATIC
        ARGFRAME ISTACK, 2, STACK
        ARGFRAME PSTACK, 0, STACK
        ARGFRAME XSTACK, 0, STACK
        ARGFRAME IOVERLAY, 0, STATIC
        ARGFRAME DOVERLAY, 0, STATIC
        FUNCALL keusButtonInit, KeusGPIOEdgeConfiguration
        LOCFRAME ISTACK, 2, STACK
        LOCFRAME PSTACK, 0, STACK
        LOCFRAME XSTACK, 0, STACK
        LOCFRAME IOVERLAY, 0, STATIC
        LOCFRAME DOVERLAY, 0, STATIC
        ARGFRAME ISTACK, 2, STACK
        ARGFRAME PSTACK, 0, STACK
        ARGFRAME XSTACK, 0, STACK
        ARGFRAME IOVERLAY, 0, STATIC
        ARGFRAME DOVERLAY, 0, STATIC
        FUNCALL keusButtonInit, KeusGPIOEdgeConfiguration
        LOCFRAME ISTACK, 2, STACK
        LOCFRAME PSTACK, 0, STACK
        LOCFRAME XSTACK, 0, STACK
        LOCFRAME IOVERLAY, 0, STATIC
        LOCFRAME DOVERLAY, 0, STATIC
        ARGFRAME ISTACK, 2, STACK
        ARGFRAME PSTACK, 0, STACK
        ARGFRAME XSTACK, 0, STACK
        ARGFRAME IOVERLAY, 0, STATIC
        ARGFRAME DOVERLAY, 0, STATIC
        FUNCALL keusButtonInit, KeusGPIOEdgeConfiguration
        LOCFRAME ISTACK, 2, STACK
        LOCFRAME PSTACK, 0, STACK
        LOCFRAME XSTACK, 0, STACK
        LOCFRAME IOVERLAY, 0, STATIC
        LOCFRAME DOVERLAY, 0, STATIC
        ARGFRAME ISTACK, 2, STACK
        ARGFRAME PSTACK, 0, STACK
        ARGFRAME XSTACK, 0, STACK
        ARGFRAME IOVERLAY, 0, STATIC
        ARGFRAME DOVERLAY, 0, STATIC
        FUNCALL keusButtonInit, KeusGPIOInterruptEnable
        LOCFRAME ISTACK, 2, STACK
        LOCFRAME PSTACK, 0, STACK
        LOCFRAME XSTACK, 0, STACK
        LOCFRAME IOVERLAY, 0, STATIC
        LOCFRAME DOVERLAY, 0, STATIC
        ARGFRAME ISTACK, 2, STACK
        ARGFRAME PSTACK, 0, STACK
        ARGFRAME XSTACK, 0, STACK
        ARGFRAME IOVERLAY, 0, STATIC
        ARGFRAME DOVERLAY, 0, STATIC
        FUNCALL keusButtonInit, KeusGPIOInterruptEnable
        LOCFRAME ISTACK, 2, STACK
        LOCFRAME PSTACK, 0, STACK
        LOCFRAME XSTACK, 0, STACK
        LOCFRAME IOVERLAY, 0, STATIC
        LOCFRAME DOVERLAY, 0, STATIC
        ARGFRAME ISTACK, 2, STACK
        ARGFRAME PSTACK, 0, STACK
        ARGFRAME XSTACK, 0, STACK
        ARGFRAME IOVERLAY, 0, STATIC
        ARGFRAME DOVERLAY, 0, STATIC
        FUNCALL keusButtonInit, KeusGPIOInterruptEnable
        LOCFRAME ISTACK, 2, STACK
        LOCFRAME PSTACK, 0, STACK
        LOCFRAME XSTACK, 0, STACK
        LOCFRAME IOVERLAY, 0, STATIC
        LOCFRAME DOVERLAY, 0, STATIC
        ARGFRAME ISTACK, 2, STACK
        ARGFRAME PSTACK, 0, STACK
        ARGFRAME XSTACK, 0, STACK
        ARGFRAME IOVERLAY, 0, STATIC
        ARGFRAME DOVERLAY, 0, STATIC
        FUNCALL keusButtonInit, KeusGPIOInterruptEnable
        LOCFRAME ISTACK, 2, STACK
        LOCFRAME PSTACK, 0, STACK
        LOCFRAME XSTACK, 0, STACK
        LOCFRAME IOVERLAY, 0, STATIC
        LOCFRAME DOVERLAY, 0, STATIC
        ARGFRAME ISTACK, 2, STACK
        ARGFRAME PSTACK, 0, STACK
        ARGFRAME XSTACK, 0, STACK
        ARGFRAME IOVERLAY, 0, STATIC
        ARGFRAME DOVERLAY, 0, STATIC
        PUSH      DPL
          CFI DPL0 Frame(CFA_SP, 4)
          CFI CFA_SP SP+-4
        PUSH      DPH
          CFI DPH0 Frame(CFA_SP, 5)
          CFI CFA_SP SP+-5
        ; Saved register size: 2
        ; Auto size: 0
//   25   KeusGPIOSetDirection(&ledPin);
        ; Setup parameters for call to function KeusGPIOSetDirection
        MOV       R2,#ledPin & 0xff
        MOV       R3,#(ledPin >> 8) & 0xff
        LCALL     `??KeusGPIOSetDirection::?relay`; Banked call to: KeusGPIOSetDirection
//   26   KeusGPIOSetDirection(&ledPin2);
        ; Setup parameters for call to function KeusGPIOSetDirection
        MOV       R2,#ledPin2 & 0xff
        MOV       R3,#(ledPin2 >> 8) & 0xff
        LCALL     `??KeusGPIOSetDirection::?relay`; Banked call to: KeusGPIOSetDirection
//   27   KeusGPIOSetDirection(&buttonPin);
        ; Setup parameters for call to function KeusGPIOSetDirection
        MOV       R2,#buttonPin & 0xff
        MOV       R3,#(buttonPin >> 8) & 0xff
        LCALL     `??KeusGPIOSetDirection::?relay`; Banked call to: KeusGPIOSetDirection
//   28   KeusGPIOSetDirection(&buttonPin2);
        ; Setup parameters for call to function KeusGPIOSetDirection
        MOV       R2,#buttonPin2 & 0xff
        MOV       R3,#(buttonPin2 >> 8) & 0xff
        LCALL     `??KeusGPIOSetDirection::?relay`; Banked call to: KeusGPIOSetDirection
//   29   KeusGPIOSetDirection(&buttonPin3);
        ; Setup parameters for call to function KeusGPIOSetDirection
        MOV       R2,#buttonPin3 & 0xff
        MOV       R3,#(buttonPin3 >> 8) & 0xff
        LCALL     `??KeusGPIOSetDirection::?relay`; Banked call to: KeusGPIOSetDirection
//   30   KeusGPIOSetDirection(&buttonPin4);
        ; Setup parameters for call to function KeusGPIOSetDirection
        MOV       R2,#buttonPin4 & 0xff
        MOV       R3,#(buttonPin4 >> 8) & 0xff
        LCALL     `??KeusGPIOSetDirection::?relay`; Banked call to: KeusGPIOSetDirection
//   31   KeusGPIOSetPinValue(&ledPin);
        ; Setup parameters for call to function KeusGPIOSetPinValue
        MOV       R2,#ledPin & 0xff
        MOV       R3,#(ledPin >> 8) & 0xff
        LCALL     `??KeusGPIOSetPinValue::?relay`; Banked call to: KeusGPIOSetPinValue
//   32   KeusGPIOSetPinValue(&ledPin2);
        ; Setup parameters for call to function KeusGPIOSetPinValue
        MOV       R2,#ledPin2 & 0xff
        MOV       R3,#(ledPin2 >> 8) & 0xff
        LCALL     `??KeusGPIOSetPinValue::?relay`; Banked call to: KeusGPIOSetPinValue
//   33   KeusGPIOEdgeConfiguration(&buttonPin, GPIO_RISING_EDGE);
        ; Setup parameters for call to function KeusGPIOEdgeConfiguration
        MOV       R1,#0x1
        MOV       R2,#buttonPin & 0xff
        MOV       R3,#(buttonPin >> 8) & 0xff
        LCALL     `??KeusGPIOEdgeConfiguration::?relay`; Banked call to: KeusGPIOEdgeConfiguration
//   34   KeusGPIOEdgeConfiguration(&buttonPin2, GPIO_RISING_EDGE);
        ; Setup parameters for call to function KeusGPIOEdgeConfiguration
        MOV       R1,#0x1
        MOV       R2,#buttonPin2 & 0xff
        MOV       R3,#(buttonPin2 >> 8) & 0xff
        LCALL     `??KeusGPIOEdgeConfiguration::?relay`; Banked call to: KeusGPIOEdgeConfiguration
//   35   KeusGPIOEdgeConfiguration(&buttonPin3, GPIO_RISING_EDGE);
        ; Setup parameters for call to function KeusGPIOEdgeConfiguration
        MOV       R1,#0x1
        MOV       R2,#buttonPin3 & 0xff
        MOV       R3,#(buttonPin3 >> 8) & 0xff
        LCALL     `??KeusGPIOEdgeConfiguration::?relay`; Banked call to: KeusGPIOEdgeConfiguration
//   36   KeusGPIOEdgeConfiguration(&buttonPin4, GPIO_RISING_EDGE);
        ; Setup parameters for call to function KeusGPIOEdgeConfiguration
        MOV       R1,#0x1
        MOV       R2,#buttonPin4 & 0xff
        MOV       R3,#(buttonPin4 >> 8) & 0xff
        LCALL     `??KeusGPIOEdgeConfiguration::?relay`; Banked call to: KeusGPIOEdgeConfiguration
//   37   KeusGPIOInterruptEnable(&buttonPin);
        ; Setup parameters for call to function KeusGPIOInterruptEnable
        MOV       R2,#buttonPin & 0xff
        MOV       R3,#(buttonPin >> 8) & 0xff
        LCALL     `??KeusGPIOInterruptEnable::?relay`; Banked call to: KeusGPIOInterruptEnable
//   38   KeusGPIOInterruptEnable(&buttonPin2);
        ; Setup parameters for call to function KeusGPIOInterruptEnable
        MOV       R2,#buttonPin2 & 0xff
        MOV       R3,#(buttonPin2 >> 8) & 0xff
        LCALL     `??KeusGPIOInterruptEnable::?relay`; Banked call to: KeusGPIOInterruptEnable
//   39   KeusGPIOInterruptEnable(&buttonPin3);
        ; Setup parameters for call to function KeusGPIOInterruptEnable
        MOV       R2,#buttonPin3 & 0xff
        MOV       R3,#(buttonPin3 >> 8) & 0xff
        LCALL     `??KeusGPIOInterruptEnable::?relay`; Banked call to: KeusGPIOInterruptEnable
//   40   KeusGPIOInterruptEnable(&buttonPin4);    
        ; Setup parameters for call to function KeusGPIOInterruptEnable
        MOV       R2,#buttonPin4 & 0xff
        MOV       R3,#(buttonPin4 >> 8) & 0xff
        LCALL     `??KeusGPIOInterruptEnable::?relay`; Banked call to: KeusGPIOInterruptEnable
//   41 }
        LJMP      ?Subroutine0 & 0xFFFF
          CFI EndBlock cfiBlock2
//   42 

        RSEG NEAR_CODE:CODE:NOROOT(0)
//   43 HAL_ISR_FUNCTION(halKeusPort1Isr, P1INT_VECTOR)
halKeusPort1Isr:
          CFI Block cfiBlock3 Using cfiCommon1
          CFI Function halKeusPort1Isr
        CODE
//   44 {
        FUNCALL halKeusPort1Isr, KeusTimerUtilAddTimer
        LOCFRAME ISTACK, 0, STACK
        LOCFRAME PSTACK, 0, STACK
        LOCFRAME XSTACK, 17, STACK
        LOCFRAME IOVERLAY, 0, STATIC
        LOCFRAME DOVERLAY, 0, STATIC
        ARGFRAME ISTACK, 0, STACK
        ARGFRAME PSTACK, 0, STACK
        ARGFRAME XSTACK, 17, STACK
        ARGFRAME IOVERLAY, 0, STATIC
        ARGFRAME DOVERLAY, 0, STATIC
        REQUIRE ?V0
        REQUIRE ?V1
        REQUIRE ?V2
        REQUIRE ?V3
        PUSH      A
          CFI A Frame(CFA_SP, 3)
          CFI CFA_SP SP+-3
        MOV       A,#-0x11
        LCALL     ?INTERRUPT_ENTER_XSP
          CFI B load(1, XDATA, add(CFA_XSP16, literal(-1)))
          CFI VB load(1, XDATA, add(CFA_XSP16, literal(-2)))
          CFI PSW load(1, XDATA, add(CFA_XSP16, literal(-3)))
          CFI DPL0 load(1, XDATA, add(CFA_XSP16, literal(-4)))
          CFI DPH0 load(1, XDATA, add(CFA_XSP16, literal(-5)))
          CFI R7 load(1, XDATA, add(CFA_XSP16, literal(-6)))
          CFI R6 load(1, XDATA, add(CFA_XSP16, literal(-7)))
          CFI R5 load(1, XDATA, add(CFA_XSP16, literal(-8)))
          CFI R4 load(1, XDATA, add(CFA_XSP16, literal(-9)))
          CFI V3 load(1, XDATA, add(CFA_XSP16, literal(-10)))
          CFI V2 load(1, XDATA, add(CFA_XSP16, literal(-11)))
          CFI V1 load(1, XDATA, add(CFA_XSP16, literal(-12)))
          CFI V0 load(1, XDATA, add(CFA_XSP16, literal(-13)))
          CFI R3 load(1, XDATA, add(CFA_XSP16, literal(-14)))
          CFI R2 load(1, XDATA, add(CFA_XSP16, literal(-15)))
          CFI R1 load(1, XDATA, add(CFA_XSP16, literal(-16)))
          CFI R0 load(1, XDATA, add(CFA_XSP16, literal(-17)))
          CFI CFA_XSP16 add(XSP16, 17)
        ; Saved register size: 17
        ; Auto size: 0
//   45   HAL_ENTER_ISR();
        MOV       C,0xa8.7
        CLR       A
        RLC       A
        MOV       R6,A
        SETB      0xa8.7
//   46 
//   47   if (debounce_read)
        MOV       DPTR,#debounce_read
        MOVX      A,@DPTR
        JNZ       $+5
        LJMP      ??halKeusPort1Isr_0
//   48   {
//   49     debounce_read = false; //make sure it does not read untill the debounce timer CB sets it again
        CLR       A
        MOVX      @DPTR,A
//   50 
//   51     if (P1IFG & BV(buttonPin.bit))
        MOV       ?V0,#0x1
        MOV       ?V1,A
        MOV       DPTR,#buttonPin + 1
        MOVX      A,@DPTR
        MOV       R0,#?V0
        LCALL     ?S_SHL
        MOV       A,?V0
        ANL       A,0x8a
        JZ        ??halKeusPort1Isr_1
//   52     {
//   53       keusAppEvents |= KEUS_BUTTON1;
        MOV       DPTR,#__Constant_1
        MOV       R0,#?V0
        LCALL     ?L_MOV_X
        MOV       DPTR,#keusAppEvents
        MOV       R0,#?V0
        LCALL     ?L_IOR_TO_X
//   54     }
//   55 
//   56     if (P1IFG & BV(buttonPin2.bit))
??halKeusPort1Isr_1:
        MOV       ?V0,#0x1
        MOV       ?V1,#0x0
        MOV       DPTR,#buttonPin2 + 1
        MOVX      A,@DPTR
        MOV       R0,#?V0
        LCALL     ?S_SHL
        MOV       A,?V0
        ANL       A,0x8a
        JZ        ??halKeusPort1Isr_2
//   57     {
//   58       keusAppEvents |= KEUS_BUTTON2;
        MOV       DPTR,#__Constant_2
        MOV       R0,#?V0
        LCALL     ?L_MOV_X
        MOV       DPTR,#keusAppEvents
        MOV       R0,#?V0
        LCALL     ?L_IOR_TO_X
//   59     }
//   60 
//   61     if (P1IFG & BV(buttonPin3.bit))
??halKeusPort1Isr_2:
        MOV       ?V0,#0x1
        MOV       ?V1,#0x0
        MOV       DPTR,#buttonPin3 + 1
        MOVX      A,@DPTR
        MOV       R0,#?V0
        LCALL     ?S_SHL
        MOV       A,?V0
        ANL       A,0x8a
        JZ        ??halKeusPort1Isr_3
//   62     {
//   63       keusAppEvents |= KEUS_BUTTON3;
        MOV       DPTR,#__Constant_4
        MOV       R0,#?V0
        LCALL     ?L_MOV_X
        MOV       DPTR,#keusAppEvents
        MOV       R0,#?V0
        LCALL     ?L_IOR_TO_X
//   64     }
//   65 
//   66     if (P1IFG & BV(buttonPin4.bit))
??halKeusPort1Isr_3:
        MOV       ?V0,#0x1
        MOV       ?V1,#0x0
        MOV       DPTR,#buttonPin4 + 1
        MOVX      A,@DPTR
        MOV       R0,#?V0
        LCALL     ?S_SHL
        MOV       A,?V0
        ANL       A,0x8a
        JZ        ??halKeusPort1Isr_4
//   67     {
//   68       keusAppEvents |= KEUS_BUTTON4;
        MOV       DPTR,#__Constant_8
        MOV       R0,#?V0
        LCALL     ?L_MOV_X
        MOV       DPTR,#keusAppEvents
        MOV       R0,#?V0
        LCALL     ?L_IOR_TO_X
//   69     }
//   70 
//   71     KeusTimerUtilAddTimer(&debounceTimer);
??halKeusPort1Isr_4:
        ; Setup parameters for call to function KeusTimerUtilAddTimer
        MOV       R2,#debounceTimer & 0xff
        MOV       R3,#(debounceTimer >> 8) & 0xff
        LCALL     `??KeusTimerUtilAddTimer::?relay`; Banked call to: KeusTimerUtilAddTimer
//   72   }
//   73   /*
//   74    Clear the CPU interrupt flag for Port_0
//   75    PxIFG has to be cleared before PxIF
//   76  */
//   77   P1IFG = 0;
??halKeusPort1Isr_0:
        MOV       0x8a,#0x0
//   78   P1IF = 0;
        CLR       0xe8.3
//   79 
//   80   CLEAR_SLEEP_MODE();
//   81   HAL_EXIT_ISR();
        MOV       A,R6
        MOV       C,0xE0 /* A   */.0
        MOV       0xa8.7,C
//   82 }
        MOV       R7,#0x4
        LJMP      ?INTERRUPT_LEAVE_XSP
          CFI EndBlock cfiBlock3
        REQUIRE _A_IEN0
        REQUIRE P1IFG
        REQUIRE _A_IRCON2

        COMMON INTVEC:CODE:ROOT(0)
        ORG 123
`??halKeusPort1Isr::??INTVEC 123`:
        LJMP       (halKeusPort1Isr)

        RSEG XDATA_ID:CODE:NOROOT(0)
`?<Initializer for ledPin>`:
        DATA8
        DB 0
        DB 0
        DB 1
        DB 0
        DB 1

        RSEG XDATA_ID:CODE:NOROOT(0)
`?<Initializer for ledPin2>`:
        DATA8
        DB 0
        DB 1
        DB 1
        DB 0
        DB 1

        RSEG XDATA_ID:CODE:NOROOT(0)
`?<Initializer for buttonPin>`:
        DATA8
        DB 1
        DB 2
        DB 0
        DB 1
        DB 0

        RSEG XDATA_ID:CODE:NOROOT(0)
`?<Initializer for buttonPin2>`:
        DATA8
        DB 1
        DB 3
        DB 0
        DB 1
        DB 0

        RSEG XDATA_ID:CODE:NOROOT(0)
`?<Initializer for buttonPin3>`:
        DATA8
        DB 1
        DB 4
        DB 0
        DB 1
        DB 0

        RSEG XDATA_ID:CODE:NOROOT(0)
`?<Initializer for buttonPin4>`:
        DATA8
        DB 1
        DB 5
        DB 0
        DB 1
        DB 0

        RSEG XDATA_ID:CODE:NOROOT(0)
`?<Initializer for debounce_read>`:
        DATA8
        DB 1

        RSEG XDATA_ID:CODE:NOROOT(0)
`?<Initializer for debounceTimer>`:
        DATA16
        DW `??debounceTimerCbk::?relay`
        DW 200
        DATA8
        DB 1
        DB -1
        DATA16
        DW 0

        RSEG XDATA_ROM_C:CONST:REORDER:NOROOT(0)
        DATA32
__Constant_1:
        DD 1

        RSEG XDATA_ROM_C:CONST:REORDER:NOROOT(0)
        DATA32
__Constant_2:
        DD 2

        RSEG XDATA_ROM_C:CONST:REORDER:NOROOT(0)
        DATA32
__Constant_4:
        DD 4

        RSEG XDATA_ROM_C:CONST:REORDER:NOROOT(0)
        DATA32
__Constant_8:
        DD 8

        RSEG BANK_RELAYS:CODE:REORDER:NOROOT(0)
`??debounceTimerCbk::?relay`:
        CODE
        LCALL   ?BDISPATCH
        DATA24
        DC24    debounceTimerCbk

        RSEG BANK_RELAYS:CODE:REORDER:NOROOT(0)
`??keusButtonInit::?relay`:
        CODE
        LCALL   ?BDISPATCH
        DATA24
        DC24    keusButtonInit

        END
// 
// 151 bytes in segment BANKED_CODE
//  12 bytes in segment BANK_RELAYS
//   3 bytes in segment INTVEC
// 194 bytes in segment NEAR_CODE
//   3 bytes in segment SFR_AN
//  39 bytes in segment XDATA_I
//  39 bytes in segment XDATA_ID
//  16 bytes in segment XDATA_ROM_C
// 
// 245 bytes of CODE     memory (+  3 bytes shared)
//   0 bytes of CONST    memory (+ 16 bytes shared)
//   0 bytes of DATA     memory (+  3 bytes shared)
// 151 bytes of HUGECODE memory
//  39 bytes of XDATA    memory
//
//Errors: none
//Warnings: none
