///////////////////////////////////////////////////////////////////////////////
//
// IAR C/C++ Compiler V10.30.1.6000 for 8051              06/Jan/2020  18:45:33
// Copyright 2004-2018 IAR Systems AB.
// PC-locked license - IAR Embedded Workbench for 8051
//
//    Core               =  plain
//    Code model         =  banked
//    Data model         =  large
//    Calling convention =  xdata reentrant
//    Constant location  =  data_rom
//    Dptr setup         =  1,16
//                          
//    Source file        =  
//        D:\VB_Shared\Zigbee Resources\CC2530
//        Development\Projects\zstack\ZMain\TI2530DB\Theme_switch\keusactions.c
//    Command line       =  
//        -f C:\Users\Souvik\AppData\Local\Temp\EWBB39.tmp
//        ("D:\VB_Shared\Zigbee Resources\CC2530
//        Development\Projects\zstack\ZMain\TI2530DB\Theme_switch\keusactions.c"
//        -D SECURE=1 -D TC_LINKKEY_JOIN -D NV_INIT -D NV_RESTORE -D
//        HAL_KEY=FALSE -D HAL_LCD=FALSE -D HAL_LED=FALSE -D
//        MULTICAST_ENABLED=FALSE -D ZCL_READ -D ZCL_WRITE -D ZCL_BASIC -D
//        ZCL_IDENTIFY -D KEUS_GPIO_INTERRUPT_HANDLER_DISABLE -D HAL_UART=TRUE
//        -D HAL_UART_ISR=1 -D HAL_UART_DMA=2 -D HAL_UART_DMA_RX_MAX=64 -D
//        HAL_UART_DMA_TX_MAX=64 -D INT_HEAP_LEN=3172 -lC "D:\VB_Shared\Zigbee
//        Resources\CC2530
//        Development\Projects\zstack\HomeAutomation\Theme_Switch\CC2530DB\EndDeviceEB\List"
//        -lA "D:\VB_Shared\Zigbee Resources\CC2530
//        Development\Projects\zstack\HomeAutomation\Theme_Switch\CC2530DB\EndDeviceEB\List"
//        --diag_suppress Pe001,Pa010 -o "D:\VB_Shared\Zigbee Resources\CC2530
//        Development\Projects\zstack\HomeAutomation\Theme_Switch\CC2530DB\EndDeviceEB\Obj"
//        -e --debug --core=plain --dptr=16,1 --data_model=large
//        --code_model=banked --calling_convention=xdata_reentrant
//        --place_constants=data_rom --nr_virtual_regs 16 -f
//        "D:\VB_Shared\Zigbee Resources\CC2530
//        Development\Projects\zstack\HomeAutomation\Theme_Switch\CC2530DB\..\..\..\Tools\CC2530DB\f8wEndev.cfg"
//        (-DCPU32MHZ -DROOT=__near_func -DMAC_CFG_TX_DATA_MAX=3
//        -DMAC_CFG_TX_MAX=6 -DMAC_CFG_RX_MAX=3) -f "D:\VB_Shared\Zigbee
//        Resources\CC2530
//        Development\Projects\zstack\HomeAutomation\Theme_Switch\CC2530DB\..\..\..\Tools\CC2530DB\f8wConfig.cfg"
//        (-DZIGBEEPRO -DSECURE=1 -DZG_SECURE_DYNAMIC=0 -DREFLECTOR
//        -DDEFAULT_CHANLIST=0x00000800 -DZDAPP_CONFIG_PAN_ID=0xFFFF
//        -DNWK_START_DELAY=100 -DEXTENDED_JOINING_RANDOM_MASK=0x007F
//        -DBEACON_REQUEST_DELAY=100 -DBEACON_REQ_DELAY_MASK=0x00FF
//        -DLINK_STATUS_JITTER_MASK=0x007F -DROUTE_EXPIRY_TIME=30
//        -DAPSC_ACK_WAIT_DURATION_POLLED=3000 -DNWK_INDIRECT_MSG_TIMEOUT=7
//        -DMAX_RREQ_ENTRIES=8 -DAPSC_MAX_FRAME_RETRIES=3
//        -DNWK_MAX_DATA_RETRIES=2 -DMAX_POLL_FAILURE_RETRIES=2 -DMAX_BCAST=9
//        -DAPS_MAX_GROUPS=16 -DMAX_RTG_ENTRIES=40 -DNWK_MAX_BINDING_ENTRIES=4
//        -DMAX_BINDING_CLUSTER_IDS=4 -DDEFAULT_KEY={0}
//        -DMAC_MAX_FRAME_SIZE=116 -DZDNWKMGR_MIN_TRANSMISSIONS=20
//        "-DCONST=const __code" -DGENERIC=__generic -DRFD_RCVC_ALWAYS_ON=FALSE
//        -DPOLL_RATE=1000 -DQUEUED_POLL_RATE=100 -DRESPONSE_POLL_RATE=100
//        -DREJOIN_POLL_RATE=440 -DREJOIN_BACKOFF=900000 -DREJOIN_SCAN=900000
//        -DENABLE_LED4_DISABLE_S1) -f "D:\VB_Shared\Zigbee Resources\CC2530
//        Development\Projects\zstack\HomeAutomation\Theme_Switch\CC2530DB\..\..\..\Tools\CC2530DB\f8wZCL.cfg"
//        -I "D:\VB_Shared\Zigbee Resources\CC2530
//        Development\Projects\zstack\HomeAutomation\Theme_Switch\CC2530DB\" -I
//        "D:\VB_Shared\Zigbee Resources\CC2530
//        Development\Projects\zstack\HomeAutomation\Theme_Switch\CC2530DB\..\Source\"
//        -I "D:\VB_Shared\Zigbee Resources\CC2530
//        Development\Projects\zstack\HomeAutomation\Theme_Switch\CC2530DB\..\..\Source\"
//        -I "D:\VB_Shared\Zigbee Resources\CC2530
//        Development\Projects\zstack\HomeAutomation\Theme_Switch\CC2530DB\..\..\..\ZMain\TI2530DB\"
//        -I "D:\VB_Shared\Zigbee Resources\CC2530
//        Development\Projects\zstack\HomeAutomation\Theme_Switch\CC2530DB\..\..\..\..\..\Components\hal\include\"
//        -I "D:\VB_Shared\Zigbee Resources\CC2530
//        Development\Projects\zstack\HomeAutomation\Theme_Switch\CC2530DB\..\..\..\..\..\Components\hal\target\CC2530EB\"
//        -I "D:\VB_Shared\Zigbee Resources\CC2530
//        Development\Projects\zstack\HomeAutomation\Theme_Switch\CC2530DB\..\..\..\..\..\Components\mac\include\"
//        -I "D:\VB_Shared\Zigbee Resources\CC2530
//        Development\Projects\zstack\HomeAutomation\Theme_Switch\CC2530DB\..\..\..\..\..\Components\mac\high_level\"
//        -I "D:\VB_Shared\Zigbee Resources\CC2530
//        Development\Projects\zstack\HomeAutomation\Theme_Switch\CC2530DB\..\..\..\..\..\Components\mac\low_level\srf04\"
//        -I "D:\VB_Shared\Zigbee Resources\CC2530
//        Development\Projects\zstack\HomeAutomation\Theme_Switch\CC2530DB\..\..\..\..\..\Components\mac\low_level\srf04\single_chip\"
//        -I "D:\VB_Shared\Zigbee Resources\CC2530
//        Development\Projects\zstack\HomeAutomation\Theme_Switch\CC2530DB\..\..\..\..\..\Components\mt\"
//        -I "D:\VB_Shared\Zigbee Resources\CC2530
//        Development\Projects\zstack\HomeAutomation\Theme_Switch\CC2530DB\..\..\..\..\..\Components\osal\include\"
//        -I "D:\VB_Shared\Zigbee Resources\CC2530
//        Development\Projects\zstack\HomeAutomation\Theme_Switch\CC2530DB\..\..\..\..\..\Components\services\saddr\"
//        -I "D:\VB_Shared\Zigbee Resources\CC2530
//        Development\Projects\zstack\HomeAutomation\Theme_Switch\CC2530DB\..\..\..\..\..\Components\services\sdata\"
//        -I "D:\VB_Shared\Zigbee Resources\CC2530
//        Development\Projects\zstack\HomeAutomation\Theme_Switch\CC2530DB\..\..\..\..\..\Components\stack\af\"
//        -I "D:\VB_Shared\Zigbee Resources\CC2530
//        Development\Projects\zstack\HomeAutomation\Theme_Switch\CC2530DB\..\..\..\..\..\Components\stack\bdb\"
//        -I "D:\VB_Shared\Zigbee Resources\CC2530
//        Development\Projects\zstack\HomeAutomation\Theme_Switch\CC2530DB\..\..\..\..\..\Components\stack\gp\"
//        -I "D:\VB_Shared\Zigbee Resources\CC2530
//        Development\Projects\zstack\HomeAutomation\Theme_Switch\CC2530DB\..\..\..\..\..\Components\stack\nwk\"
//        -I "D:\VB_Shared\Zigbee Resources\CC2530
//        Development\Projects\zstack\HomeAutomation\Theme_Switch\CC2530DB\..\..\..\..\..\Components\stack\sapi\"
//        -I "D:\VB_Shared\Zigbee Resources\CC2530
//        Development\Projects\zstack\HomeAutomation\Theme_Switch\CC2530DB\..\..\..\..\..\Components\stack\sec\"
//        -I "D:\VB_Shared\Zigbee Resources\CC2530
//        Development\Projects\zstack\HomeAutomation\Theme_Switch\CC2530DB\..\..\..\..\..\Components\stack\sys\"
//        -I "D:\VB_Shared\Zigbee Resources\CC2530
//        Development\Projects\zstack\HomeAutomation\Theme_Switch\CC2530DB\..\..\..\..\..\Components\stack\zcl\"
//        -I "D:\VB_Shared\Zigbee Resources\CC2530
//        Development\Projects\zstack\HomeAutomation\Theme_Switch\CC2530DB\..\..\..\..\..\Components\stack\zdo\"
//        -I "D:\VB_Shared\Zigbee Resources\CC2530
//        Development\Projects\zstack\HomeAutomation\Theme_Switch\CC2530DB\..\..\..\..\..\Components\zmac\"
//        -I "D:\VB_Shared\Zigbee Resources\CC2530
//        Development\Projects\zstack\HomeAutomation\Theme_Switch\CC2530DB\..\..\..\..\..\Components\zmac\f8w\"
//        -I "D:\VB_Shared\Zigbee Resources\CC2530
//        Development\Projects\zstack\HomeAutomation\Theme_Switch\CC2530DB\..\..\..\..\..\Components\keus\"
//        -Ohz --require_prototypes)
//    Locale             =  English_USA.1252
//    List file          =  
//        D:\VB_Shared\Zigbee Resources\CC2530
//        Development\Projects\zstack\HomeAutomation\Theme_Switch\CC2530DB\EndDeviceEB\List\keusactions.s51
//
///////////////////////////////////////////////////////////////////////////////

        NAME keusactions

        RTMODEL "__SystemLibrary", "CLib"
        RTMODEL "__calling_convention", "xdata_reentrant"
        RTMODEL "__code_model", "banked"
        RTMODEL "__core", "plain"
        RTMODEL "__data_model", "large"
        RTMODEL "__dptr_size", "16"
        RTMODEL "__extended_stack", "disabled"
        RTMODEL "__location_for_constants", "data"
        RTMODEL "__number_of_dptrs", "1"
        RTMODEL "__register_banks", "*"
        RTMODEL "__rt_version", "1"

        RSEG DOVERLAY:DATA:NOROOT(0)
        RSEG IOVERLAY:IDATA:NOROOT(0)
        RSEG ISTACK:IDATA:NOROOT(0)
        RSEG PSTACK:XDATA:NOROOT(0)
        RSEG XSTACK:XDATA:NOROOT(0)

        EXTERN ?V0
        EXTERN ?BANKED_ENTER_XDATA
        EXTERN ?BANKED_LEAVE_XDATA
        EXTERN ?BDISPATCH
        EXTERN ?BRET
        EXTERN __INIT_XDATA_Z

        PUBLIC `??mapSwitch::?relay`
        FUNCTION `??mapSwitch::?relay`,0203H
        PUBLIC `??parseUart::?relay`
        FUNCTION `??parseUart::?relay`,0203H
        PUBLIC `??taskHandler::?relay`
        FUNCTION `??taskHandler::?relay`,0203H
        PUBLIC commandId
        PUBLIC mapSwitch
        FUNCTION mapSwitch,0a1203H
        ARGFRAME XSTACK, 0, STACK
        ARGFRAME IOVERLAY, 0, STATIC
        ARGFRAME DOVERLAY, 0, STATIC
        LOCFRAME XSTACK, 9, STACK
        PUBLIC parseUart
        FUNCTION parseUart,021203H
        ARGFRAME XSTACK, 0, STACK
        LOCFRAME ISTACK, 3, STACK
        PUBLIC scene_arr
        PUBLIC taskHandler
        FUNCTION taskHandler,021203H
        ARGFRAME XSTACK, 0, STACK
        LOCFRAME ISTACK, 2, STACK
        PUBLIC uartDataBuffer
        
          CFI Names cfiNames0
          CFI StackFrame CFA_SP SP IDATA
          CFI StackFrame CFA_PSP16 PSP16 XDATA
          CFI StackFrame CFA_XSP16 XSP16 XDATA
          CFI StaticOverlayFrame CFA_IOVERLAY IOVERLAY
          CFI StaticOverlayFrame CFA_DOVERLAY DOVERLAY
          CFI Resource `PSW.CY`:1, `B.BR0`:1, `B.BR1`:1, `B.BR2`:1, `B.BR3`:1
          CFI Resource `B.BR4`:1, `B.BR5`:1, `B.BR6`:1, `B.BR7`:1, `VB.BR8`:1
          CFI Resource `VB.BR9`:1, `VB.BR10`:1, `VB.BR11`:1, `VB.BR12`:1
          CFI Resource `VB.BR13`:1, `VB.BR14`:1, `VB.BR15`:1, VB:8, B:8, A:8
          CFI Resource PSW:8, DPL0:8, DPH0:8, R0:8, R1:8, R2:8, R3:8, R4:8, R5:8
          CFI Resource R6:8, R7:8, V0:8, V1:8, V2:8, V3:8, V4:8, V5:8, V6:8, V7:8
          CFI Resource V8:8, V9:8, V10:8, V11:8, V12:8, V13:8, V14:8, V15:8, SP:8
          CFI Resource PSPH:8, PSPL:8, PSP16:16, XSPH:8, XSPL:8, XSP16:16
          CFI VirtualResource ?RET:24
          CFI Resource ?BRET_EXT:8
          CFI VirtualResource ?RET_HIGH:8, ?RET_LOW:8
          CFI ResourceParts PSP16 PSPH, PSPL
          CFI ResourceParts XSP16 XSPH, XSPL
          CFI ResourceParts ?RET ?BRET_EXT, ?RET_HIGH, ?RET_LOW
          CFI EndNames cfiNames0
        
          CFI Common cfiCommon0 Using cfiNames0
          CFI CodeAlign 1
          CFI DataAlign -1
          CFI ReturnAddress ?RET CODE
          CFI CFA_DOVERLAY Used
          CFI CFA_IOVERLAY Used
          CFI CFA_SP SP+-3
          CFI CFA_PSP16 PSP16+0
          CFI CFA_XSP16 XSP16+0
          CFI `PSW.CY` SameValue
          CFI `B.BR0` SameValue
          CFI `B.BR1` SameValue
          CFI `B.BR2` SameValue
          CFI `B.BR3` SameValue
          CFI `B.BR4` SameValue
          CFI `B.BR5` SameValue
          CFI `B.BR6` SameValue
          CFI `B.BR7` SameValue
          CFI `VB.BR8` SameValue
          CFI `VB.BR9` SameValue
          CFI `VB.BR10` SameValue
          CFI `VB.BR11` SameValue
          CFI `VB.BR12` SameValue
          CFI `VB.BR13` SameValue
          CFI `VB.BR14` SameValue
          CFI `VB.BR15` SameValue
          CFI VB SameValue
          CFI B Undefined
          CFI A Undefined
          CFI PSW SameValue
          CFI DPL0 SameValue
          CFI DPH0 SameValue
          CFI R0 Undefined
          CFI R1 Undefined
          CFI R2 Undefined
          CFI R3 Undefined
          CFI R4 Undefined
          CFI R5 Undefined
          CFI R6 SameValue
          CFI R7 SameValue
          CFI V0 SameValue
          CFI V1 SameValue
          CFI V2 SameValue
          CFI V3 SameValue
          CFI V4 SameValue
          CFI V5 SameValue
          CFI V6 SameValue
          CFI V7 SameValue
          CFI V8 SameValue
          CFI V9 SameValue
          CFI V10 SameValue
          CFI V11 SameValue
          CFI V12 SameValue
          CFI V13 SameValue
          CFI V14 SameValue
          CFI V15 SameValue
          CFI PSPH Undefined
          CFI PSPL Undefined
          CFI XSPH Undefined
          CFI XSPL Undefined
          CFI ?RET Concat
          CFI ?BRET_EXT Frame(CFA_SP, 3)
          CFI ?RET_HIGH Frame(CFA_SP, 2)
          CFI ?RET_LOW Frame(CFA_SP, 1)
          CFI EndCommon cfiCommon0
        
KeusUartAckMsg      SYMBOL "KeusUartAckMsg"
`??KeusUartAckMsg::?relay` SYMBOL "?relay", KeusUartAckMsg
mapSwitch           SYMBOL "mapSwitch"
`??mapSwitch::?relay` SYMBOL "?relay", mapSwitch
parseUart           SYMBOL "parseUart"
`??parseUart::?relay` SYMBOL "?relay", parseUart
taskHandler         SYMBOL "taskHandler"
`??taskHandler::?relay` SYMBOL "?relay", taskHandler

        EXTERN `??KeusUartAckMsg::?relay`
        FUNCTION `??KeusUartAckMsg::?relay`,00H
        EXTERN KeusUartAckMsg
        FUNCTION KeusUartAckMsg,0202H
        ARGFRAME ISTACK, 0, STACK
        ARGFRAME PSTACK, 0, STACK
        ARGFRAME XSTACK, 9, STACK
        ARGFRAME IOVERLAY, 0, STATIC
        ARGFRAME DOVERLAY, 0, STATIC
        EXTERN g0_u8RecData

// D:\VB_Shared\Zigbee Resources\CC2530 Development\Projects\zstack\ZMain\TI2530DB\Theme_switch\keusactions.c
//    1 #include "hal_adc.h"
//    2 #include "hal_flash.h"
//    3 #include "hal_lcd.h"
//    4 #include "hal_led.h"
//    5 #include "hal_uart.h"
//    6 #include "hal_drivers.h"
//    7 #include "OnBoard.h"
//    8 #include "OSAL.h"
//    9 #include "OSAL_Nv.h"
//   10 #include "ZComDef.h"
//   11 #include "ZMAC.h"
//   12 #include "keusactions.h"

        RSEG XDATA_Z:XDATA:NOROOT(0)
        DATA8
// uint8 commandId
commandId:
        DS 1
        REQUIRE __INIT_XDATA_Z

        RSEG XDATA_Z:XDATA:NOROOT(0)
        DATA8
// uint8 uartDataBuffer[12]
uartDataBuffer:
        DS 12
        REQUIRE __INIT_XDATA_Z

        RSEG XDATA_Z:XDATA:NOROOT(0)
        DATA32
// uint8 scene_arr[4]
scene_arr:
        DS 4
        REQUIRE __INIT_XDATA_Z
//   13 

        RSEG BANKED_CODE:HUGECODE:NOROOT(0)
//   14 void parseUart(void)
parseUart:
          CFI Block cfiBlock0 Using cfiCommon0
          CFI Function parseUart
        CODE
//   15 {
        FUNCALL parseUart, mapSwitch
        LOCFRAME ISTACK, 2, STACK
        LOCFRAME PSTACK, 0, STACK
        LOCFRAME XSTACK, 0, STACK
        LOCFRAME IOVERLAY, 0, STATIC
        LOCFRAME DOVERLAY, 0, STATIC
        ARGFRAME ISTACK, 2, STACK
        ARGFRAME PSTACK, 0, STACK
        ARGFRAME XSTACK, 0, STACK
        ARGFRAME IOVERLAY, 0, STATIC
        ARGFRAME DOVERLAY, 0, STATIC
        PUSH      DPL
          CFI DPL0 Frame(CFA_SP, 4)
          CFI CFA_SP SP+-4
        PUSH      DPH
          CFI DPH0 Frame(CFA_SP, 5)
          CFI CFA_SP SP+-5
        ; Saved register size: 2
        ; Auto size: 0
//   16     int i = 0;
        MOV       R0,#0x0
        MOV       R1,#0x0
//   17     commandId = g0_u8RecData[0];
        MOV       DPTR,#g0_u8RecData
        MOVX      A,@DPTR
        MOV       DPTR,#commandId
        MOVX      @DPTR,A
//   18 
//   19     for (i = 0; i < MAX_UART_DATA_BUFFER; i++)
//   20     {
//   21         uartDataBuffer[i] = g0_u8RecData[i + 1];
??parseUart_0:
        MOV       A,#(g0_u8RecData + 1) & 0xff
        ADD       A,R0
        MOV       DPL,A
        MOV       A,#((g0_u8RecData + 1) >> 8) & 0xff
        ADDC      A,R1
        MOV       DPH,A
        MOVX      A,@DPTR
        PUSH      A
          CFI CFA_SP SP+-6
        MOV       A,#uartDataBuffer & 0xff
        ADD       A,R0
        MOV       DPL,A
        MOV       A,#(uartDataBuffer >> 8) & 0xff
        ADDC      A,R1
        MOV       DPH,A
        POP       A
          CFI CFA_SP SP+-5
        MOVX      @DPTR,A
//   22     }
        INC       R0
        MOV       A,R0
        JNZ       ??parseUart_1
        INC       R1
??parseUart_1:
        CLR       C
        SUBB      A,#0xc
        MOV       A,R1
        SUBB      A,#0x0
        MOV       C,0xD0 /* PSW */.2
        XRL       A,PSW
        RLC       A
        JC        ??parseUart_0
//   23 
//   24     taskHandler();
        MOV       DPTR,#commandId
        MOVX      A,@DPTR
        XRL       A,#0x1
        JNZ       ??parseUart_2
        ; Setup parameters for call to function mapSwitch
        LCALL     `??mapSwitch::?relay`; Banked call to: mapSwitch
//   25 }
??parseUart_2:
          CFI EndBlock cfiBlock0
        REQUIRE ?Subroutine0
        ; // Fall through to label ?Subroutine0

        RSEG BANKED_CODE:HUGECODE:NOROOT(0)
?Subroutine0:
          CFI Block cfiBlock1 Using cfiCommon0
          CFI NoFunction
          CFI CFA_SP SP+-5
          CFI DPL0 Frame(CFA_SP, 4)
          CFI DPH0 Frame(CFA_SP, 5)
        POP       DPH
          CFI CFA_SP SP+-4
          CFI DPH0 SameValue
        POP       DPL
          CFI CFA_SP SP+-3
          CFI DPL0 SameValue
        LJMP      ?BRET
          CFI EndBlock cfiBlock1
//   26 
//   27 //Calls the required function as needed by UART received message

        RSEG BANKED_CODE:HUGECODE:NOROOT(0)
//   28 void taskHandler(void)
taskHandler:
          CFI Block cfiBlock2 Using cfiCommon0
          CFI Function taskHandler
        CODE
//   29 {
        FUNCALL taskHandler, mapSwitch
        LOCFRAME ISTACK, 2, STACK
        LOCFRAME PSTACK, 0, STACK
        LOCFRAME XSTACK, 0, STACK
        LOCFRAME IOVERLAY, 0, STATIC
        LOCFRAME DOVERLAY, 0, STATIC
        ARGFRAME ISTACK, 2, STACK
        ARGFRAME PSTACK, 0, STACK
        ARGFRAME XSTACK, 0, STACK
        ARGFRAME IOVERLAY, 0, STATIC
        ARGFRAME DOVERLAY, 0, STATIC
        PUSH      DPL
          CFI DPL0 Frame(CFA_SP, 4)
          CFI CFA_SP SP+-4
        PUSH      DPH
          CFI DPH0 Frame(CFA_SP, 5)
          CFI CFA_SP SP+-5
        ; Saved register size: 2
        ; Auto size: 0
//   30     switch (commandId)
        MOV       DPTR,#commandId
        MOVX      A,@DPTR
        XRL       A,#0x1
        JNZ       ??taskHandler_0
//   31     {
//   32     case TASK_MAP_SWITCH:
//   33         mapSwitch();
        ; Setup parameters for call to function mapSwitch
        LCALL     `??mapSwitch::?relay`; Banked call to: mapSwitch
//   34         break;
//   35 
//   36     default:
//   37         break;
//   38     }
//   39 }
??taskHandler_0:
        SJMP      ?Subroutine0
          CFI EndBlock cfiBlock2
//   40 

        RSEG BANKED_CODE:HUGECODE:NOROOT(0)
//   41 void mapSwitch(void)
mapSwitch:
          CFI Block cfiBlock3 Using cfiCommon0
          CFI Function mapSwitch
        CODE
//   42 {
        FUNCALL mapSwitch, KeusUartAckMsg
        LOCFRAME ISTACK, 0, STACK
        LOCFRAME PSTACK, 0, STACK
        LOCFRAME XSTACK, 9, STACK
        LOCFRAME IOVERLAY, 0, STATIC
        LOCFRAME DOVERLAY, 0, STATIC
        ARGFRAME ISTACK, 0, STACK
        ARGFRAME PSTACK, 0, STACK
        ARGFRAME XSTACK, 9, STACK
        ARGFRAME IOVERLAY, 0, STATIC
        ARGFRAME DOVERLAY, 0, STATIC
        REQUIRE ?V0
        MOV       A,#-0x9
        LCALL     ?BANKED_ENTER_XDATA
          CFI DPH0 load(1, XDATA, add(CFA_XSP16, literal(-1)))
          CFI DPL0 load(1, XDATA, add(CFA_XSP16, literal(-2)))
          CFI ?BRET_EXT load(1, XDATA, add(CFA_XSP16, literal(-3)))
          CFI ?RET_HIGH load(1, XDATA, add(CFA_XSP16, literal(-4)))
          CFI ?RET_LOW load(1, XDATA, add(CFA_XSP16, literal(-5)))
          CFI R7 load(1, XDATA, add(CFA_XSP16, literal(-6)))
          CFI V0 load(1, XDATA, add(CFA_XSP16, literal(-7)))
          CFI VB load(1, XDATA, add(CFA_XSP16, literal(-8)))
          CFI R6 load(1, XDATA, add(CFA_XSP16, literal(-9)))
          CFI CFA_SP SP+0
          CFI CFA_XSP16 add(XSP16, 9)
        ; Saved register size: 9
        ; Auto size: 0
//   43     //Example msg: 28 06 01 | 02 01 54 02 64 | 29
//   44     int noOfSwitch = uartDataBuffer[0];
        MOV       DPTR,#uartDataBuffer
        MOVX      A,@DPTR
        MOV       R6,A
//   45     uint8 position = 0, switchId, sceneID;
        MOV       R2,#0x0
//   46 
//   47     for (int i = 0; i < noOfSwitch; i++)
        MOV       R4,#0x0
        MOV       R5,#0x0
        SJMP      ??mapSwitch_0
//   48     {
//   49         switchId = uartDataBuffer[position + 1];
//   50         sceneID = uartDataBuffer[position + 2];
//   51         position += 2;
//   52         switch (switchId)
//   53         {
//   54         case BUTTON1_ID:
//   55             scene_arr[0] = sceneID;
//   56             break;
//   57         case BUTTON2_ID:
//   58             scene_arr[1] = sceneID;
//   59             break;
//   60         case BUTTON3_ID:
//   61             scene_arr[2] = sceneID;
//   62             break;
//   63         case BUTTON4_ID:
//   64             scene_arr[3] = sceneID;
??mapSwitch_1:
        MOV       A,R0
        MOV       DPTR,#scene_arr + 3
??mapSwitch_2:
        MOVX      @DPTR,A
//   65             break;
??mapSwitch_3:
        INC       R4
        MOV       A,R4
        JNZ       ??mapSwitch_0
        INC       R5
??mapSwitch_0:
        CLR       C
        MOV       A,R4
        SUBB      A,R6
        MOV       A,R5
        SUBB      A,#0x0
        MOV       C,0xD0 /* PSW */.2
        XRL       A,PSW
        RLC       A
        JNC       ??mapSwitch_4
        MOV       A,R2
        MOV       R0,A
        MOV       A,#uartDataBuffer & 0xff
        ADD       A,R0
        MOV       R0,A
        CLR       A
        ADDC      A,#(uartDataBuffer >> 8) & 0xff
        MOV       R1,A
        MOV       DPL,R0
        MOV       DPH,A
        INC       DPTR
        MOVX      A,@DPTR
        MOV       R3,A
        MOV       DPL,R0
        MOV       DPH,R1
        INC       DPTR
        INC       DPTR
        MOVX      A,@DPTR
        MOV       R0,A
        INC       R2
        INC       R2
        MOV       A,R3
        DEC       A
        JZ        ??mapSwitch_5
        DEC       A
        JZ        ??mapSwitch_6
        DEC       A
        JZ        ??mapSwitch_7
        DEC       A
        JZ        ??mapSwitch_1
        SJMP      ??mapSwitch_3
??mapSwitch_5:
        MOV       A,R0
        MOV       DPTR,#scene_arr
        SJMP      ??mapSwitch_2
??mapSwitch_6:
        MOV       A,R0
        MOV       DPTR,#scene_arr + 1
        SJMP      ??mapSwitch_2
??mapSwitch_7:
        MOV       A,R0
        MOV       DPTR,#scene_arr + 2
        SJMP      ??mapSwitch_2
//   66 
//   67         default:
//   68             break;
//   69         }
//   70     }
//   71 
//   72     KeusUartAckMsg(KEUS_UART_MSG_ACK);
??mapSwitch_4:
        ; Setup parameters for call to function KeusUartAckMsg
        MOV       R1,#0x5
        LCALL     `??KeusUartAckMsg::?relay`; Banked call to: KeusUartAckMsg
//   73 }
        MOV       R7,#0x1
        LJMP      ?BANKED_LEAVE_XDATA
          CFI EndBlock cfiBlock3

        RSEG BANK_RELAYS:CODE:REORDER:NOROOT(0)
`??parseUart::?relay`:
        CODE
        LCALL   ?BDISPATCH
        DATA24
        DC24    parseUart

        RSEG BANK_RELAYS:CODE:REORDER:NOROOT(0)
`??taskHandler::?relay`:
        CODE
        LCALL   ?BDISPATCH
        DATA24
        DC24    taskHandler

        RSEG BANK_RELAYS:CODE:REORDER:NOROOT(0)
`??mapSwitch::?relay`:
        CODE
        LCALL   ?BDISPATCH
        DATA24
        DC24    mapSwitch

        END
// 
// 206 bytes in segment BANKED_CODE
//  18 bytes in segment BANK_RELAYS
//  17 bytes in segment XDATA_Z
// 
//  18 bytes of CODE     memory
// 206 bytes of HUGECODE memory
//  17 bytes of XDATA    memory
//
//Errors: none
//Warnings: none
